Archive member included because of file (symbol)

arch/x86/lib/libgcc.a(_divdi3.o)
                              arch/x86/lib/built-in.o (__normal___divdi3)
arch/x86/lib/libgcc.a(_moddi3.o)
                              arch/x86/lib/built-in.o (__normal___moddi3)
arch/x86/lib/libgcc.a(_udivdi3.o)
                              arch/x86/lib/built-in.o (__normal___udivdi3)
arch/x86/lib/libgcc.a(_umoddi3.o)
                              arch/x86/lib/built-in.o (__normal___umoddi3)

Allocating common symbols
Common symbol       size              file

ext_fs              0x48              fs/built-in.o
console_buffer      0x801             common/built-in.o
registered_devices  0x4               drivers/usb/gadget/built-in.o
idt_ptr             0x8               arch/x86/cpu/built-in.o
dirty_block_ptr     0x190             fs/built-in.o
part_offset         0x4               fs/built-in.o
monitor_flash_len   0x4               common/built-in.o
save_addr           0x4               common/built-in.o
registered_functions
                    0x4               drivers/usb/gadget/built-in.o
___strtok           0x4               lib/built-in.o
ext4fs_indir1_size  0x4               fs/built-in.o
ext4fs_indir2_block
                    0x4               fs/built-in.o
ext4fs_indir3_block
                    0x4               fs/built-in.o
journal_ptr         0x190             fs/built-in.o
gindex              0x4               fs/built-in.o
env_ptr             0x4               common/built-in.o
ext4fs_symlinknest  0x4               fs/built-in.o
bd_data             0x5c              arch/x86/lib/built-in.o
usb_devices         0x4               drivers/usb/gadget/built-in.o
images              0x90              common/built-in.o
gd_index            0x4               fs/built-in.o
global_dwc3         0x4               drivers/usb/dwc3/built-in.o
do_fat_read_at_block
                    0x10000           fs/built-in.o
ext4fs_indir3_size  0x4               fs/built-in.o
g_parent_inode      0x4               fs/built-in.o
ext4fs_indir2_size  0x4               fs/built-in.o
ext4fs_indir1_block
                    0x4               fs/built-in.o
save_size           0x4               common/built-in.o
idt                 0x800             arch/x86/cpu/built-in.o
usb_strings         0x4               drivers/usb/gadget/built-in.o
ext4fs_file         0x4               fs/built-in.o
get_dentfromdir_block
                    0x10000           fs/built-in.o
aligned_buffer      0x4               drivers/mmc/built-in.o
ext4fs_root         0x4               fs/built-in.o
get_contents_vfatname_block
                    0x10000           fs/built-in.o
jrnl_blk_idx        0x4               fs/built-in.o

Discarded input sections

 .data          0x0000000000000000        0x0 arch/x86/cpu/start.o
 .bss           0x0000000000000000        0x0 arch/x86/cpu/start.o
 .text          0x0000000000000000        0x0 arch/x86/cpu/built-in.o
 .text.set_vector
                0x0000000000000000       0x19 arch/x86/cpu/built-in.o
 .text.__do_irq
                0x0000000000000000       0x17 arch/x86/cpu/built-in.o
 .text.x86_cleanup_before_linux
                0x0000000000000000        0x3 arch/x86/cpu/built-in.o
 .text.x86_cpu_init_f
                0x0000000000000000       0x11 arch/x86/cpu/built-in.o
 .text.__reset_cpu
                0x0000000000000000       0x31 arch/x86/cpu/built-in.o
 .text.flush_dcache_range
                0x0000000000000000        0x1 arch/x86/cpu/built-in.o
 .text.invalidate_dcache_range
                0x0000000000000000        0x1 arch/x86/cpu/built-in.o
 .eh_frame      0x0000000000000000      0x284 arch/x86/cpu/built-in.o
 .data          0x0000000000000000        0x0 arch/x86/cpu/built-in.o
 .bss           0x0000000000000000        0x0 arch/x86/cpu/built-in.o
 .text.board_early_init_f
                0x0000000000000000        0x3 arch/x86/cpu/tangier/built-in.o
 .text.last_stage_init
                0x0000000000000000        0x3 arch/x86/cpu/tangier/built-in.o
 .text.panic_puts
                0x0000000000000000        0x1 arch/x86/cpu/tangier/built-in.o
 .text.dram_init
                0x0000000000000000        0x5 arch/x86/cpu/tangier/built-in.o
 .text.get_coreboot_info
                0x0000000000000000        0x3 arch/x86/cpu/tangier/built-in.o
 .eh_frame      0x0000000000000000      0x208 arch/x86/cpu/tangier/built-in.o
 .text          0x0000000000000000        0x0 arch/x86/lib/built-in.o
 .text.__wrap___divdi3
                0x0000000000000000       0x27 arch/x86/lib/built-in.o
 .text.__wrap___moddi3
                0x0000000000000000       0x27 arch/x86/lib/built-in.o
 .text.__wrap___umoddi3
                0x0000000000000000       0x27 arch/x86/lib/built-in.o
 .text.board_get_usable_ram_top
                0x0000000000000000        0xa arch/x86/lib/built-in.o
 .text.init_bd_struct_r
                0x0000000000000000       0x23 arch/x86/lib/built-in.o
 .text.init_func_spi
                0x0000000000000000       0x1c arch/x86/lib/built-in.o
 .text.find_fdt
                0x0000000000000000       0x27 arch/x86/lib/built-in.o
 .text.prepare_fdt
                0x0000000000000000       0x1a arch/x86/lib/built-in.o
 .text.copy_fdt_to_ram
                0x0000000000000000       0x56 arch/x86/lib/built-in.o
 .text.x86_phys_memset_page
                0x0000000000000000       0x90 arch/x86/lib/built-in.o
 .text.arch_phys_memset
                0x0000000000000000      0x307 arch/x86/lib/built-in.o
 .text.get_tbclk_mhz
                0x0000000000000000       0x15 arch/x86/lib/built-in.o
 .text.timer_get_boot_us
                0x0000000000000000        0x5 arch/x86/lib/built-in.o
 .text.generic_install_e820_map
                0x0000000000000000        0x3 arch/x86/lib/built-in.o
 .text.board_final_cleanup
                0x0000000000000000        0x1 arch/x86/lib/built-in.o
 .eh_frame      0x0000000000000000      0xbf4 arch/x86/lib/built-in.o
 .data          0x0000000000000000        0x0 arch/x86/lib/built-in.o
 COMMON         0x0000000000000000       0x5c arch/x86/lib/built-in.o
 .text.watchdog_disable
                0x0000000000000000        0xf board/intel/edison/built-in.o
 .text.watchdog_init
                0x0000000000000000        0xc board/intel/edison/built-in.o
 .eh_frame      0x0000000000000000       0x54 board/intel/edison/built-in.o
 .data          0x0000000000000000        0x0 board/intel/edison/built-in.o
 .bss           0x0000000000000000        0x0 board/intel/edison/built-in.o
 .text          0x0000000000000000        0x0 common/built-in.o
 .text.__show_boot_progress
                0x0000000000000000        0x1 common/built-in.o
 .text.parse_line
                0x0000000000000000       0x66 common/built-in.o
 .text.cmd_process_error
                0x0000000000000000       0x29 common/built-in.o
 .text.hash_block
                0x0000000000000000       0x54 common/built-in.o
 .text.unset_local_var
                0x0000000000000000       0x7a common/built-in.o
 .text.__coloured_LED_init
                0x0000000000000000        0x1 common/built-in.o
 .text.__red_led_on
                0x0000000000000000        0x1 common/built-in.o
 .text.__red_led_off
                0x0000000000000000        0x1 common/built-in.o
 .text.__green_led_on
                0x0000000000000000        0x1 common/built-in.o
 .text.__green_led_off
                0x0000000000000000        0x1 common/built-in.o
 .text.__yellow_led_on
                0x0000000000000000        0x1 common/built-in.o
 .text.__yellow_led_off
                0x0000000000000000        0x1 common/built-in.o
 .text.__blue_led_on
                0x0000000000000000        0x1 common/built-in.o
 .text.__blue_led_off
                0x0000000000000000        0x1 common/built-in.o
 .text.__dram_init_banksize
                0x0000000000000000        0x1 common/built-in.o
 .text.board_get_usable_ram_top
                0x0000000000000000        0xa common/built-in.o
 .text.__board_flash_wp_on
                0x0000000000000000        0x3 common/built-in.o
 .text.fixup_cpu
                0x0000000000000000        0x3 common/built-in.o
 .text.do_go_exec
                0x0000000000000000        0xb common/built-in.o
 .text.bootm_maybe_autostart
                0x0000000000000000       0x65 common/built-in.o
 .text.__splash_screen_prepare
                0x0000000000000000        0x3 common/built-in.o
 .text.get_env_id
                0x0000000000000000        0x6 common/built-in.o
 .text.setenv_ulong
                0x0000000000000000       0x14 common/built-in.o
 .text.getenv_hex
                0x0000000000000000       0x29 common/built-in.o
 .text.fputs    0x0000000000000000       0x12 common/built-in.o
 .text.fprintf  0x0000000000000000       0x36 common/built-in.o
 .text.disable_ctrlc
                0x0000000000000000        0xe common/built-in.o
 .text.dbg      0x0000000000000000        0x1 common/built-in.o
 .text.valloc   0x0000000000000000        0xc common/built-in.o
 .text.pvalloc  0x0000000000000000       0x16 common/built-in.o
 .text.cfree    0x0000000000000000        0x5 common/built-in.o
 .text.malloc_usable_size
                0x0000000000000000       0x38 common/built-in.o
 .text.mallopt  0x0000000000000000       0x48 common/built-in.o
 .text.getenv_bootm_low
                0x0000000000000000       0x1d common/built-in.o
 .text.getenv_bootm_size
                0x0000000000000000       0x6a common/built-in.o
 .text.getenv_bootm_mapsize
                0x0000000000000000       0x24 common/built-in.o
 .text.get_table_entry_id
                0x0000000000000000       0x2c common/built-in.o
 .text.genimg_get_os_id
                0x0000000000000000       0x11 common/built-in.o
 .text.genimg_get_arch_id
                0x0000000000000000       0x11 common/built-in.o
 .text.genimg_get_type_id
                0x0000000000000000       0x11 common/built-in.o
 .text.genimg_get_comp_id
                0x0000000000000000       0x11 common/built-in.o
 .text.genimg_has_config
                0x0000000000000000        0x3 common/built-in.o
 .text.get_ram_size
                0x0000000000000000       0xb7 common/built-in.o
 .eh_frame      0x0000000000000000     0x4acc common/built-in.o
 .text          0x0000000000000000        0x0 disk/built-in.o
 .eh_frame      0x0000000000000000      0x8b0 disk/built-in.o
 .text          0x0000000000000000        0x0 drivers/built-in.o
 .text.ipc_data_writel
                0x0000000000000000        0x7 drivers/built-in.o
 .text.ipc_read_status
                0x0000000000000000        0x6 drivers/built-in.o
 .text.ipc_data_readb
                0x0000000000000000        0x7 drivers/built-in.o
 .text.ipc_data_readl
                0x0000000000000000        0x7 drivers/built-in.o
 .text.init_scu_ipc
                0x0000000000000000        0x3 drivers/built-in.o
 .text.dfu_get_alt
                0x0000000000000000       0x3f drivers/built-in.o
 .eh_frame      0x0000000000000000      0x8c8 drivers/built-in.o
 .text          0x0000000000000000        0x0 drivers/input/built-in.o
 .text.input_tstc
                0x0000000000000000       0x2d drivers/input/built-in.o
 .text.input_getc
                0x0000000000000000       0x3d drivers/input/built-in.o
 .text.input_send_keycodes
                0x0000000000000000      0x2bf drivers/input/built-in.o
 .text.input_add_table
                0x0000000000000000       0x3c drivers/input/built-in.o
 .text.input_set_delays
                0x0000000000000000        0xd drivers/input/built-in.o
 .text.input_init
                0x0000000000000000       0x93 drivers/input/built-in.o
 .text.input_stdio_register
                0x0000000000000000       0x3b drivers/input/built-in.o
 .rodata        0x0000000000000000       0x71 drivers/input/built-in.o
 .rodata.str1.1
                0x0000000000000000       0x16 drivers/input/built-in.o
 .eh_frame      0x0000000000000000      0x15c drivers/input/built-in.o
 .data          0x0000000000000000       0xe8 drivers/input/built-in.o
 .bss           0x0000000000000000        0x0 drivers/input/built-in.o
 .comment       0x0000000000000000       0x12 drivers/input/built-in.o
 .note.GNU-stack
                0x0000000000000000        0x0 drivers/input/built-in.o
 .debug_aranges
                0x0000000000000000       0x50 drivers/input/built-in.o
 .debug_info    0x0000000000000000     0x1109 drivers/input/built-in.o
 .debug_abbrev  0x0000000000000000      0x3b8 drivers/input/built-in.o
 .debug_line    0x0000000000000000      0x2bd drivers/input/built-in.o
 .debug_frame   0x0000000000000000      0x15c drivers/input/built-in.o
 .debug_str     0x0000000000000000      0x7a7 drivers/input/built-in.o
 .debug_loc     0x0000000000000000      0xad0 drivers/input/built-in.o
 .debug_ranges  0x0000000000000000       0x90 drivers/input/built-in.o
 .text          0x0000000000000000        0x0 drivers/mmc/built-in.o
 .text.mmc_register
                0x0000000000000000       0x1e drivers/mmc/built-in.o
 .text.mmc_destroy
                0x0000000000000000        0x5 drivers/mmc/built-in.o
 .text.mmc_set_preinit
                0x0000000000000000        0x7 drivers/mmc/built-in.o
 .eh_frame      0x0000000000000000      0x900 drivers/mmc/built-in.o
 .text          0x0000000000000000        0x0 drivers/pci/built-in.o
 .text.pci_hose_read_config_byte_via_dword
                0x0000000000000000       0x45 drivers/pci/built-in.o
 .text.pci_hose_read_config_word_via_dword
                0x0000000000000000       0x48 drivers/pci/built-in.o
 .text.pci_hose_write_config_byte_via_dword
                0x0000000000000000       0x78 drivers/pci/built-in.o
 .text.pci_hose_write_config_word_via_dword
                0x0000000000000000       0x76 drivers/pci/built-in.o
 .text.pci_map_bar
                0x0000000000000000       0x30 drivers/pci/built-in.o
 .text.find_hose_by_cfg_addr
                0x0000000000000000       0x19 drivers/pci/built-in.o
 .text.pci_last_busno
                0x0000000000000000       0x1b drivers/pci/built-in.o
 .text.pci_find_devices
                0x0000000000000000       0xd4 drivers/pci/built-in.o
 .text.pci_find_device
                0x0000000000000000       0x1b drivers/pci/built-in.o
 .text.__pci_hose_phys_to_bus
                0x0000000000000000       0x50 drivers/pci/built-in.o
 .text.pci_hose_phys_to_bus
                0x0000000000000000       0x78 drivers/pci/built-in.o
 .text.__pci_hose_bus_to_phys
                0x0000000000000000       0x5d drivers/pci/built-in.o
 .text.pci_hose_bus_to_phys
                0x0000000000000000       0x7e drivers/pci/built-in.o
 .text.pci_hose_config_device
                0x0000000000000000      0x196 drivers/pci/built-in.o
 .text.pci_cfgfunc_config_device
                0x0000000000000000       0x22 drivers/pci/built-in.o
 .text.pci_cfgfunc_do_nothing
                0x0000000000000000        0x1 drivers/pci/built-in.o
 .text.pci_hose_find_capability
                0x0000000000000000       0x48 drivers/pci/built-in.o
 .text.pci_hose_find_cap_start
                0x0000000000000000       0x3d drivers/pci/built-in.o
 .text.pci_find_cap
                0x0000000000000000       0x76 drivers/pci/built-in.o
 .text.pciauto_region_init
                0x0000000000000000        0xe drivers/pci/built-in.o
 .text.pciauto_region_align
                0x0000000000000000        0xc drivers/pci/built-in.o
 .text.pciauto_region_allocate
                0x0000000000000000       0x3c drivers/pci/built-in.o
 .text.pciauto_setup_device
                0x0000000000000000      0x191 drivers/pci/built-in.o
 .text.pciauto_prescan_setup_bridge
                0x0000000000000000      0x17f drivers/pci/built-in.o
 .text.pciauto_postscan_setup_bridge
                0x0000000000000000       0xd7 drivers/pci/built-in.o
 .text.pciauto_config_init
                0x0000000000000000       0xc9 drivers/pci/built-in.o
 .text.pciauto_config_device
                0x0000000000000000      0x12e drivers/pci/built-in.o
 .eh_frame      0x0000000000000000      0xba8 drivers/pci/built-in.o
 .data          0x0000000000000000        0x0 drivers/pci/built-in.o
 .text          0x0000000000000000        0x0 drivers/serial/built-in.o
 .text.serial_register
                0x0000000000000000        0xf drivers/serial/built-in.o
 .text.serial_reinit_all
                0x0000000000000000       0x15 drivers/serial/built-in.o
 .text.default_serial_puts
                0x0000000000000000       0x1d drivers/serial/built-in.o
 .text._serial_setbrg
                0x0000000000000000        0x1 drivers/serial/built-in.o
 .text._serial_tstc
                0x0000000000000000        0xe drivers/serial/built-in.o
 .text.tng_serial_initialize
                0x0000000000000000       0x14 drivers/serial/built-in.o
 .rodata        0x0000000000000000       0x14 drivers/serial/built-in.o
 .eh_frame      0x0000000000000000      0x410 drivers/serial/built-in.o
 .text          0x0000000000000000        0x0 drivers/spi/built-in.o
 .text.spi_set_wordlen
                0x0000000000000000       0x28 drivers/spi/built-in.o
 .text.spi_do_alloc_slave
                0x0000000000000000       0x3a drivers/spi/built-in.o
 .rodata.str1.1
                0x0000000000000000       0x19 drivers/spi/built-in.o
 .eh_frame      0x0000000000000000       0x88 drivers/spi/built-in.o
 .data          0x0000000000000000        0x0 drivers/spi/built-in.o
 .bss           0x0000000000000000        0x0 drivers/spi/built-in.o
 .comment       0x0000000000000000       0x12 drivers/spi/built-in.o
 .note.GNU-stack
                0x0000000000000000        0x0 drivers/spi/built-in.o
 .debug_aranges
                0x0000000000000000       0x28 drivers/spi/built-in.o
 .debug_info    0x0000000000000000      0x4f3 drivers/spi/built-in.o
 .debug_abbrev  0x0000000000000000      0x1b4 drivers/spi/built-in.o
 .debug_line    0x0000000000000000      0x151 drivers/spi/built-in.o
 .debug_frame   0x0000000000000000       0x88 drivers/spi/built-in.o
 .debug_str     0x0000000000000000      0x463 drivers/spi/built-in.o
 .debug_loc     0x0000000000000000      0x126 drivers/spi/built-in.o
 .debug_ranges  0x0000000000000000       0x18 drivers/spi/built-in.o
 .text          0x0000000000000000        0x0 drivers/usb/dwc3/built-in.o
 .text.dwc3_get_device_id
                0x0000000000000000        0xf drivers/usb/dwc3/built-in.o
 .text.dwc3_put_device_id
                0x0000000000000000        0x1 drivers/usb/dwc3/built-in.o
 .text.dwc3_remove
                0x0000000000000000       0x3a drivers/usb/dwc3/built-in.o
 .text.usb_gadget_exit_udc
                0x0000000000000000        0x7 drivers/usb/dwc3/built-in.o
 .text.dwc3_gadget_exit
                0x0000000000000000       0x8a drivers/usb/dwc3/built-in.o
 .eh_frame      0x0000000000000000      0xce4 drivers/usb/dwc3/built-in.o
 .text          0x0000000000000000        0x0 drivers/usb/gadget/built-in.o
 .text.usb_ep_autoconfig
                0x0000000000000000      0x16f drivers/usb/gadget/built-in.o
 .text.usb_gadget_config_buf
                0x0000000000000000       0x5f drivers/usb/gadget/built-in.o
 .text.fsg_add  0x0000000000000000        0x3 drivers/usb/gadget/built-in.o
 .text.thor_add
                0x0000000000000000        0x3 drivers/usb/gadget/built-in.o
 .text.usb_function_deactivate
                0x0000000000000000       0x2e drivers/usb/gadget/built-in.o
 .text.usb_function_activate
                0x0000000000000000       0x36 drivers/usb/gadget/built-in.o
 .text.usb_string_ids_tab
                0x0000000000000000       0x22 drivers/usb/gadget/built-in.o
 .text.usb_string_ids_n
                0x0000000000000000       0x2d drivers/usb/gadget/built-in.o
 .text.g_dnl_set_serialnumber
                0x0000000000000000       0x38 drivers/usb/gadget/built-in.o
 .text.usbd_get_string
                0x0000000000000000       0x18 drivers/usb/gadget/built-in.o
 .text.usbd_device_interface_instance
                0x0000000000000000       0x26 drivers/usb/gadget/built-in.o
 .text.usbd_device_alternate_instance
                0x0000000000000000       0x2d drivers/usb/gadget/built-in.o
 .text.usbd_device_device_descriptor
                0x0000000000000000        0x4 drivers/usb/gadget/built-in.o
 .text.usbd_device_configuration_descriptor
                0x0000000000000000       0x18 drivers/usb/gadget/built-in.o
 .text.usbd_device_interface_descriptor
                0x0000000000000000       0x2f drivers/usb/gadget/built-in.o
 .text.usbd_device_endpoint_descriptor_index
                0x0000000000000000       0x36 drivers/usb/gadget/built-in.o
 .text.usbd_device_endpoint_transfersize
                0x0000000000000000       0x36 drivers/usb/gadget/built-in.o
 .text.usbd_device_endpoint_descriptor
                0x0000000000000000        0x3 drivers/usb/gadget/built-in.o
 .text.usbd_endpoint_halted
                0x0000000000000000        0xb drivers/usb/gadget/built-in.o
 .text.usbd_rcv_complete
                0x0000000000000000       0x95 drivers/usb/gadget/built-in.o
 .text.usbd_tx_complete
                0x0000000000000000       0x84 drivers/usb/gadget/built-in.o
 .text.urb_link_init
                0x0000000000000000        0xa drivers/usb/gadget/built-in.o
 .text.urb_detach
                0x0000000000000000       0x1e drivers/usb/gadget/built-in.o
 .text.first_urb_link
                0x0000000000000000       0x1a drivers/usb/gadget/built-in.o
 .text.first_urb
                0x0000000000000000       0x10 drivers/usb/gadget/built-in.o
 .text.first_urb_detached
                0x0000000000000000       0x15 drivers/usb/gadget/built-in.o
 .text.urb_append
                0x0000000000000000       0x21 drivers/usb/gadget/built-in.o
 .text.usbd_alloc_urb
                0x0000000000000000       0x71 drivers/usb/gadget/built-in.o
 .text.usbd_dealloc_urb
                0x0000000000000000        0xa drivers/usb/gadget/built-in.o
 .text.copy_config
                0x0000000000000000       0x2b drivers/usb/gadget/built-in.o
 .text.ep0_recv_setup
                0x0000000000000000      0x293 drivers/usb/gadget/built-in.o
 .eh_frame      0x0000000000000000      0xf68 drivers/usb/gadget/built-in.o
 COMMON         0x0000000000000000       0x10 drivers/usb/gadget/built-in.o
 .text          0x0000000000000000        0x0 fs/built-in.o
 .text.fs_write
                0x0000000000000000       0x62 fs/built-in.o
 .text.do_save  0x0000000000000000      0x105 fs/built-in.o
 .text.print_revoke_blks
                0x0000000000000000       0x55 fs/built-in.o
 .text.fat_register_device
                0x0000000000000000       0x84 fs/built-in.o
 .text.file_getfsname
                0x0000000000000000        0xd fs/built-in.o
 .text.file_cd  0x0000000000000000      0x134 fs/built-in.o
 .text.file_detectfs
                0x0000000000000000       0x32 fs/built-in.o
 .text.file_ls  0x0000000000000000       0x64 fs/built-in.o
 .text.file_read
                0x0000000000000000       0x74 fs/built-in.o
 .eh_frame      0x0000000000000000     0x1cb8 fs/built-in.o
 .text          0x0000000000000000        0x0 lib/built-in.o
 .text.inflateInit_
                0x0000000000000000       0x14 lib/built-in.o
 .text.crc7     0x0000000000000000       0x1d lib/built-in.o
 .text.crc8     0x0000000000000000       0x31 lib/built-in.o
 .text.md5_wd   0x0000000000000000       0x74 lib/built-in.o
 .text.string_to_ip
                0x0000000000000000       0x53 lib/built-in.o
 .text.__arch_phys_memset
                0x0000000000000000       0x11 lib/built-in.o
 .text.sha1_csum
                0x0000000000000000       0x2e lib/built-in.o
 .text.sha1_hmac
                0x0000000000000000      0x127 lib/built-in.o
 .text.sha1_self_test
                0x0000000000000000        0x3 lib/built-in.o
 .text.strncasecmp
                0x0000000000000000       0x58 lib/built-in.o
 .text.strcasecmp
                0x0000000000000000        0x8 lib/built-in.o
 .text.strrchr  0x0000000000000000       0x24 lib/built-in.o
 .text.strswab  0x0000000000000000       0x28 lib/built-in.o
 .text.bcopy    0x0000000000000000       0x18 lib/built-in.o
 .text.memscan  0x0000000000000000       0x13 lib/built-in.o
 .text.memchr_inv
                0x0000000000000000       0xc6 lib/built-in.o
 .text.get_ticks
                0x0000000000000000       0x4a lib/built-in.o
 .text.tick_to_time
                0x0000000000000000       0x5e lib/built-in.o
 .text.timer_init
                0x0000000000000000        0x3 lib/built-in.o
 .text.get_timer
                0x0000000000000000       0x11 lib/built-in.o
 .text.timer_get_us
                0x0000000000000000       0x1a lib/built-in.o
 .text.__udelay
                0x0000000000000000       0x6f lib/built-in.o
 .text.ustrtoul
                0x0000000000000000       0x47 lib/built-in.o
 .text.__assert_fail
                0x0000000000000000       0x23 lib/built-in.o
 .text.simple_itoa
                0x0000000000000000       0x2c lib/built-in.o
 .text.print_grouped_ull
                0x0000000000000000       0x78 lib/built-in.o
 .text.srand    0x0000000000000000        0x6 lib/built-in.o
 .eh_frame      0x0000000000000000     0x1d84 lib/built-in.o
 .text          0x0000000000000000      0x15a arch/x86/lib/libgcc.a(_divdi3.o)
 .data          0x0000000000000000        0x0 arch/x86/lib/libgcc.a(_divdi3.o)
 .bss           0x0000000000000000        0x0 arch/x86/lib/libgcc.a(_divdi3.o)
 .debug_info    0x0000000000000000      0x322 arch/x86/lib/libgcc.a(_divdi3.o)
 .debug_abbrev  0x0000000000000000      0x13b arch/x86/lib/libgcc.a(_divdi3.o)
 .debug_loc     0x0000000000000000      0x3e0 arch/x86/lib/libgcc.a(_divdi3.o)
 .debug_aranges
                0x0000000000000000       0x20 arch/x86/lib/libgcc.a(_divdi3.o)
 .debug_ranges  0x0000000000000000       0x30 arch/x86/lib/libgcc.a(_divdi3.o)
 .debug_line    0x0000000000000000       0xf0 arch/x86/lib/libgcc.a(_divdi3.o)
 .debug_str     0x0000000000000000      0x2b8 arch/x86/lib/libgcc.a(_divdi3.o)
 .comment       0x0000000000000000       0x12 arch/x86/lib/libgcc.a(_divdi3.o)
 .note.GNU-stack
                0x0000000000000000        0x0 arch/x86/lib/libgcc.a(_divdi3.o)
 .eh_frame      0x0000000000000000       0x44 arch/x86/lib/libgcc.a(_divdi3.o)
 .text          0x0000000000000000      0x180 arch/x86/lib/libgcc.a(_moddi3.o)
 .data          0x0000000000000000        0x0 arch/x86/lib/libgcc.a(_moddi3.o)
 .bss           0x0000000000000000        0x0 arch/x86/lib/libgcc.a(_moddi3.o)
 .debug_info    0x0000000000000000      0x330 arch/x86/lib/libgcc.a(_moddi3.o)
 .debug_abbrev  0x0000000000000000      0x13d arch/x86/lib/libgcc.a(_moddi3.o)
 .debug_loc     0x0000000000000000      0x370 arch/x86/lib/libgcc.a(_moddi3.o)
 .debug_aranges
                0x0000000000000000       0x20 arch/x86/lib/libgcc.a(_moddi3.o)
 .debug_line    0x0000000000000000       0xe8 arch/x86/lib/libgcc.a(_moddi3.o)
 .debug_str     0x0000000000000000      0x2b8 arch/x86/lib/libgcc.a(_moddi3.o)
 .comment       0x0000000000000000       0x12 arch/x86/lib/libgcc.a(_moddi3.o)
 .note.GNU-stack
                0x0000000000000000        0x0 arch/x86/lib/libgcc.a(_moddi3.o)
 .eh_frame      0x0000000000000000       0x44 arch/x86/lib/libgcc.a(_moddi3.o)
 .data          0x0000000000000000        0x0 arch/x86/lib/libgcc.a(_udivdi3.o)
 .bss           0x0000000000000000        0x0 arch/x86/lib/libgcc.a(_udivdi3.o)
 .eh_frame      0x0000000000000000       0x44 arch/x86/lib/libgcc.a(_udivdi3.o)
 .text          0x0000000000000000      0x13b arch/x86/lib/libgcc.a(_umoddi3.o)
 .data          0x0000000000000000        0x0 arch/x86/lib/libgcc.a(_umoddi3.o)
 .bss           0x0000000000000000        0x0 arch/x86/lib/libgcc.a(_umoddi3.o)
 .debug_info    0x0000000000000000      0x304 arch/x86/lib/libgcc.a(_umoddi3.o)
 .debug_abbrev  0x0000000000000000      0x144 arch/x86/lib/libgcc.a(_umoddi3.o)
 .debug_loc     0x0000000000000000      0x4f7 arch/x86/lib/libgcc.a(_umoddi3.o)
 .debug_aranges
                0x0000000000000000       0x20 arch/x86/lib/libgcc.a(_umoddi3.o)
 .debug_ranges  0x0000000000000000       0x20 arch/x86/lib/libgcc.a(_umoddi3.o)
 .debug_line    0x0000000000000000       0xf0 arch/x86/lib/libgcc.a(_umoddi3.o)
 .debug_str     0x0000000000000000      0x2b9 arch/x86/lib/libgcc.a(_umoddi3.o)
 .comment       0x0000000000000000       0x12 arch/x86/lib/libgcc.a(_umoddi3.o)
 .note.GNU-stack
                0x0000000000000000        0x0 arch/x86/lib/libgcc.a(_umoddi3.o)
 .eh_frame      0x0000000000000000       0x44 arch/x86/lib/libgcc.a(_umoddi3.o)

Memory Configuration

Name             Origin             Length             Attributes
*default*        0x0000000000000000 0xffffffffffffffff

Linker script and memory map

Address of section .text set to 0x1101000
                0x0000000001101000                . = 0x1101000
                0x0000000001101000                __text_start = .

.text           0x0000000001101000    0x2529b
 *(.text*)
 .text          0x0000000001101000       0xb4 arch/x86/cpu/start.o
                0x0000000001101000                _x86boot_start
                0x0000000001101015                _start
                0x0000000001101025                early_board_init_ret
                0x000000000110102a                car_init_ret
                0x0000000001101057                board_init_f_r_trampoline
 .text.dump_regs
                0x00000000011010b4      0x16c arch/x86/cpu/built-in.o
                0x00000000011010b4                dump_regs
 .text.cpu_init_interrupts
                0x0000000001101220       0x7e arch/x86/cpu/built-in.o
                0x0000000001101220                cpu_init_interrupts
 .text.enable_interrupts
                0x000000000110129e        0x2 arch/x86/cpu/built-in.o
                0x000000000110129e                enable_interrupts
 .text.disable_interrupts
                0x00000000011012a0        0x9 arch/x86/cpu/built-in.o
                0x00000000011012a0                disable_interrupts
 .text.irq_llsr
                0x00000000011012a9      0x9ae arch/x86/cpu/built-in.o
                0x00000000011012a9                irq_llsr
                0x00000000011013a8                irq_common_entry
                0x00000000011013d7                irq_0
                0x00000000011013de                irq_1
                0x00000000011013e5                irq_2
                0x00000000011013ec                irq_3
                0x00000000011013f3                irq_4
                0x00000000011013fa                irq_5
                0x0000000001101401                irq_6
                0x0000000001101408                irq_7
                0x000000000110140f                irq_8
                0x0000000001101416                irq_9
                0x000000000110141d                irq_10
                0x0000000001101424                irq_11
                0x000000000110142b                irq_12
                0x0000000001101432                irq_13
                0x0000000001101439                irq_14
                0x0000000001101440                irq_15
                0x0000000001101447                irq_16
                0x000000000110144e                irq_17
                0x0000000001101455                irq_18
                0x000000000110145c                irq_19
                0x0000000001101463                irq_20
                0x000000000110146a                irq_21
                0x0000000001101471                irq_22
                0x0000000001101478                irq_23
                0x000000000110147f                irq_24
                0x0000000001101486                irq_25
                0x000000000110148d                irq_26
                0x0000000001101494                irq_27
                0x000000000110149b                irq_28
                0x00000000011014a2                irq_29
                0x00000000011014a9                irq_30
                0x00000000011014b0                irq_31
                0x00000000011014b7                irq_32
                0x00000000011014be                irq_33
                0x00000000011014c5                irq_34
                0x00000000011014cc                irq_35
                0x00000000011014d3                irq_36
                0x00000000011014da                irq_37
                0x00000000011014e1                irq_38
                0x00000000011014e8                irq_39
                0x00000000011014ef                irq_40
                0x00000000011014f6                irq_41
                0x00000000011014fd                irq_42
                0x0000000001101504                irq_43
                0x000000000110150b                irq_44
                0x0000000001101512                irq_45
                0x0000000001101519                irq_46
                0x0000000001101520                irq_47
                0x0000000001101527                irq_48
                0x000000000110152e                irq_49
                0x0000000001101535                irq_50
                0x000000000110153c                irq_51
                0x0000000001101543                irq_52
                0x000000000110154a                irq_53
                0x0000000001101551                irq_54
                0x0000000001101558                irq_55
                0x000000000110155f                irq_56
                0x0000000001101566                irq_57
                0x000000000110156d                irq_58
                0x0000000001101574                irq_59
                0x000000000110157b                irq_60
                0x0000000001101582                irq_61
                0x0000000001101589                irq_62
                0x0000000001101590                irq_63
                0x0000000001101597                irq_64
                0x000000000110159e                irq_65
                0x00000000011015a5                irq_66
                0x00000000011015ac                irq_67
                0x00000000011015b3                irq_68
                0x00000000011015ba                irq_69
                0x00000000011015c1                irq_70
                0x00000000011015c8                irq_71
                0x00000000011015cf                irq_72
                0x00000000011015d6                irq_73
                0x00000000011015dd                irq_74
                0x00000000011015e4                irq_75
                0x00000000011015eb                irq_76
                0x00000000011015f2                irq_77
                0x00000000011015f9                irq_78
                0x0000000001101600                irq_79
                0x0000000001101607                irq_80
                0x000000000110160e                irq_81
                0x0000000001101615                irq_82
                0x000000000110161c                irq_83
                0x0000000001101623                irq_84
                0x000000000110162a                irq_85
                0x0000000001101631                irq_86
                0x0000000001101638                irq_87
                0x000000000110163f                irq_88
                0x0000000001101646                irq_89
                0x000000000110164d                irq_90
                0x0000000001101654                irq_91
                0x000000000110165b                irq_92
                0x0000000001101662                irq_93
                0x0000000001101669                irq_94
                0x0000000001101670                irq_95
                0x0000000001101677                irq_97
                0x000000000110167e                irq_96
                0x0000000001101685                irq_98
                0x000000000110168c                irq_99
                0x0000000001101693                irq_100
                0x000000000110169a                irq_101
                0x00000000011016a1                irq_102
                0x00000000011016a8                irq_103
                0x00000000011016af                irq_104
                0x00000000011016b6                irq_105
                0x00000000011016bd                irq_106
                0x00000000011016c4                irq_107
                0x00000000011016cb                irq_108
                0x00000000011016d2                irq_109
                0x00000000011016d9                irq_110
                0x00000000011016e0                irq_111
                0x00000000011016e7                irq_112
                0x00000000011016ee                irq_113
                0x00000000011016f5                irq_114
                0x00000000011016fc                irq_115
                0x0000000001101703                irq_116
                0x000000000110170a                irq_117
                0x0000000001101711                irq_118
                0x0000000001101718                irq_119
                0x000000000110171f                irq_120
                0x0000000001101726                irq_121
                0x000000000110172d                irq_122
                0x0000000001101734                irq_123
                0x000000000110173b                irq_124
                0x0000000001101742                irq_125
                0x0000000001101749                irq_126
                0x0000000001101750                irq_127
                0x0000000001101757                irq_128
                0x0000000001101761                irq_129
                0x000000000110176b                irq_130
                0x0000000001101775                irq_131
                0x000000000110177f                irq_132
                0x0000000001101789                irq_133
                0x0000000001101793                irq_134
                0x000000000110179d                irq_135
                0x00000000011017a7                irq_136
                0x00000000011017b1                irq_137
                0x00000000011017bb                irq_138
                0x00000000011017c5                irq_139
                0x00000000011017cf                irq_140
                0x00000000011017d9                irq_141
                0x00000000011017e3                irq_142
                0x00000000011017ed                irq_143
                0x00000000011017f7                irq_144
                0x0000000001101801                irq_145
                0x000000000110180b                irq_146
                0x0000000001101815                irq_147
                0x000000000110181f                irq_148
                0x0000000001101829                irq_149
                0x0000000001101833                irq_150
                0x000000000110183d                irq_151
                0x0000000001101847                irq_152
                0x0000000001101851                irq_153
                0x000000000110185b                irq_154
                0x0000000001101865                irq_155
                0x000000000110186f                irq_156
                0x0000000001101879                irq_157
                0x0000000001101883                irq_158
                0x000000000110188d                irq_159
                0x0000000001101897                irq_160
                0x00000000011018a1                irq_161
                0x00000000011018ab                irq_162
                0x00000000011018b5                irq_163
                0x00000000011018bf                irq_164
                0x00000000011018c9                irq_165
                0x00000000011018d3                irq_166
                0x00000000011018dd                irq_167
                0x00000000011018e7                irq_168
                0x00000000011018f1                irq_169
                0x00000000011018fb                irq_170
                0x0000000001101905                irq_171
                0x000000000110190f                irq_172
                0x0000000001101919                irq_173
                0x0000000001101923                irq_174
                0x000000000110192d                irq_175
                0x0000000001101937                irq_176
                0x0000000001101941                irq_177
                0x000000000110194b                irq_178
                0x0000000001101955                irq_179
                0x000000000110195f                irq_180
                0x0000000001101969                irq_181
                0x0000000001101973                irq_182
                0x000000000110197d                irq_183
                0x0000000001101987                irq_184
                0x0000000001101991                irq_185
                0x000000000110199b                irq_186
                0x00000000011019a5                irq_187
                0x00000000011019af                irq_188
                0x00000000011019b9                irq_189
                0x00000000011019c3                irq_190
                0x00000000011019cd                irq_191
                0x00000000011019d7                irq_192
                0x00000000011019e1                irq_193
                0x00000000011019eb                irq_194
                0x00000000011019f5                irq_195
                0x00000000011019ff                irq_196
                0x0000000001101a09                irq_197
                0x0000000001101a13                irq_198
                0x0000000001101a1d                irq_199
                0x0000000001101a27                irq_200
                0x0000000001101a31                irq_201
                0x0000000001101a3b                irq_202
                0x0000000001101a45                irq_203
                0x0000000001101a4f                irq_204
                0x0000000001101a59                irq_205
                0x0000000001101a63                irq_206
                0x0000000001101a6d                irq_207
                0x0000000001101a77                irq_208
                0x0000000001101a81                irq_209
                0x0000000001101a8b                irq_210
                0x0000000001101a95                irq_211
                0x0000000001101a9f                irq_212
                0x0000000001101aa9                irq_213
                0x0000000001101ab3                irq_214
                0x0000000001101abd                irq_215
                0x0000000001101ac7                irq_216
                0x0000000001101ad1                irq_217
                0x0000000001101adb                irq_218
                0x0000000001101ae5                irq_219
                0x0000000001101aef                irq_220
                0x0000000001101af9                irq_221
                0x0000000001101b03                irq_222
                0x0000000001101b0d                irq_223
                0x0000000001101b17                irq_224
                0x0000000001101b21                irq_225
                0x0000000001101b2b                irq_226
                0x0000000001101b35                irq_227
                0x0000000001101b3f                irq_228
                0x0000000001101b49                irq_229
                0x0000000001101b53                irq_230
                0x0000000001101b5d                irq_231
                0x0000000001101b67                irq_232
                0x0000000001101b71                irq_233
                0x0000000001101b7b                irq_234
                0x0000000001101b85                irq_235
                0x0000000001101b8f                irq_236
                0x0000000001101b99                irq_237
                0x0000000001101ba3                irq_238
                0x0000000001101bad                irq_239
                0x0000000001101bb7                irq_240
                0x0000000001101bc1                irq_241
                0x0000000001101bcb                irq_242
                0x0000000001101bd5                irq_243
                0x0000000001101bdf                irq_244
                0x0000000001101be9                irq_245
                0x0000000001101bf3                irq_246
                0x0000000001101bfd                irq_247
                0x0000000001101c07                irq_248
                0x0000000001101c11                irq_249
                0x0000000001101c1b                irq_250
                0x0000000001101c25                irq_251
                0x0000000001101c2f                irq_252
                0x0000000001101c39                irq_253
                0x0000000001101c43                irq_254
                0x0000000001101c4d                irq_255
 .text.setup_gdt
                0x0000000001101c57       0x98 arch/x86/cpu/built-in.o
                0x0000000001101c57                setup_gdt
 .text.x86_cpu_init_r
                0x0000000001101cef        0x8 arch/x86/cpu/built-in.o
                0x0000000001101cef                cpu_init_r
                0x0000000001101cef                x86_cpu_init_r
 .text.x86_enable_caches
                0x0000000001101cf7        0xe arch/x86/cpu/built-in.o
                0x0000000001101cf7                enable_caches
                0x0000000001101cf7                x86_enable_caches
 .text.x86_disable_caches
                0x0000000001101d05       0x10 arch/x86/cpu/built-in.o
                0x0000000001101d05                disable_caches
                0x0000000001101d05                x86_disable_caches
 .text.x86_init_cache
                0x0000000001101d15        0x8 arch/x86/cpu/built-in.o
                0x0000000001101d15                init_cache
                0x0000000001101d15                x86_init_cache
 .text.do_reset
                0x0000000001101d1d       0x27 arch/x86/cpu/built-in.o
                0x0000000001101d1d                do_reset
 .text.flush_cache
                0x0000000001101d44        0xa arch/x86/cpu/built-in.o
                0x0000000001101d44                flush_cache
                0x0000000001101d47                generate_gpf
 .text.dcache_status
                0x0000000001101d4e        0xd arch/x86/cpu/built-in.o
                0x0000000001101d4e                dcache_status
 .text.dcache_enable
                0x0000000001101d5b        0x5 arch/x86/cpu/built-in.o
                0x0000000001101d5b                dcache_enable
 .text.dcache_disable
                0x0000000001101d60        0x5 arch/x86/cpu/built-in.o
                0x0000000001101d60                dcache_disable
 .text.icache_enable
                0x0000000001101d65        0x1 arch/x86/cpu/built-in.o
                0x0000000001101d65                icache_enable
 .text.icache_disable
                0x0000000001101d66        0x1 arch/x86/cpu/built-in.o
                0x0000000001101d66                icache_disable
 .text.icache_status
                0x0000000001101d67        0x6 arch/x86/cpu/built-in.o
                0x0000000001101d67                icache_status
 .text          0x0000000001101d6d        0x5 arch/x86/cpu/tangier/built-in.o
                0x0000000001101d6d                car_init
 .text.cpu_init_f
                0x0000000001101d72        0xf arch/x86/cpu/tangier/built-in.o
                0x0000000001101d72                cpu_init_f
 .text.board_early_init_r
                0x0000000001101d81        0x3 arch/x86/cpu/tangier/built-in.o
                0x0000000001101d81                board_early_init_r
 .text.board_late_init
                0x0000000001101d84      0x129 arch/x86/cpu/tangier/built-in.o
                0x0000000001101d84                board_late_init
 .text.show_boot_progress
                0x0000000001101ead        0x6 arch/x86/cpu/tangier/built-in.o
                0x0000000001101ead                show_boot_progress
 .text.board_final_cleanup
                0x0000000001101eb3        0x3 arch/x86/cpu/tangier/built-in.o
                0x0000000001101eb3                board_final_cleanup
 .text.board_mmc_init
                0x0000000001101eb6       0x11 arch/x86/cpu/tangier/built-in.o
                0x0000000001101eb6                board_mmc_init
 .text.get_tbclk_mhz
                0x0000000001101ec7       0x55 arch/x86/cpu/tangier/built-in.o
                0x0000000001101ec7                get_tbclk_mhz
 .text.reset_cpu
                0x0000000001101f1c        0xc arch/x86/cpu/tangier/built-in.o
                0x0000000001101f1c                reset_cpu
 .text.config_pci_bridge
                0x0000000001101f28       0x39 arch/x86/cpu/tangier/built-in.o
 .text.pci_init_board
                0x0000000001101f61       0x78 arch/x86/cpu/tangier/built-in.o
                0x0000000001101f61                pci_init_board
 .text.install_e820_map
                0x0000000001101fd9        0x5 arch/x86/cpu/tangier/built-in.o
                0x0000000001101fd9                install_e820_map
 .text.board_get_usable_ram_top
                0x0000000001101fde        0x6 arch/x86/cpu/tangier/built-in.o
                0x0000000001101fde                board_get_usable_ram_top
 .text.dram_init_f
                0x0000000001101fe4       0x17 arch/x86/cpu/tangier/built-in.o
                0x0000000001101fe4                dram_init_f
 .text.dram_init_banksize
                0x0000000001101ffb       0x75 arch/x86/cpu/tangier/built-in.o
                0x0000000001101ffb                dram_init_banksize
 .text.do_bootm_linux
                0x0000000001102070       0xd8 arch/x86/lib/built-in.o
                0x0000000001102070                do_bootm_linux
 .text.do_go_exec
                0x0000000001102148       0x5f arch/x86/lib/built-in.o
                0x0000000001102148                do_go_exec
 .text.__wrap___udivdi3
                0x00000000011021a7       0x27 arch/x86/lib/built-in.o
                0x00000000011021a7                __wrap___udivdi3
 .text.calculate_relocation_address
                0x00000000011021ce       0x59 arch/x86/lib/built-in.o
                0x00000000011021ce                calculate_relocation_address
 .text.init_cache_f_r
                0x0000000001102227        0x5 arch/x86/lib/built-in.o
                0x0000000001102227                init_cache_f_r
 .text.irq_install_handler
                0x000000000110222c       0x8a arch/x86/lib/built-in.o
                0x000000000110222c                irq_install_handler
 .text.irq_free_handler
                0x00000000011022b6       0x57 arch/x86/lib/built-in.o
                0x00000000011022b6                irq_free_handler
 .text.do_irq   0x000000000110230d       0x71 arch/x86/lib/built-in.o
                0x000000000110230d                do_irq
 .text.do_irqinfo
                0x000000000110237e       0x7b arch/x86/lib/built-in.o
                0x000000000110237e                do_irqinfo
 .text.interrupt_init
                0x00000000011023f9       0x7d arch/x86/lib/built-in.o
                0x00000000011023f9                interrupt_init
 .text.mask_irq
                0x0000000001102476       0x2e arch/x86/lib/built-in.o
                0x0000000001102476                mask_irq
 .text.unmask_irq
                0x00000000011024a4       0x30 arch/x86/lib/built-in.o
                0x00000000011024a4                unmask_irq
 .text.specific_eoi
                0x00000000011024d4       0x1d arch/x86/lib/built-in.o
                0x00000000011024d4                specific_eoi
 .text.type1_read_config_byte
                0x00000000011024f1       0x29 arch/x86/lib/built-in.o
 .text.type1_read_config_word
                0x000000000110251a       0x2b arch/x86/lib/built-in.o
 .text.type1_read_config_dword
                0x0000000001102545       0x27 arch/x86/lib/built-in.o
 .text.type1_write_config_byte
                0x000000000110256c       0x2a arch/x86/lib/built-in.o
 .text.type1_write_config_word
                0x0000000001102596       0x2b arch/x86/lib/built-in.o
 .text.type1_write_config_dword
                0x00000000011025c1       0x25 arch/x86/lib/built-in.o
 .text.pci_setup_type1
                0x00000000011025e6       0x4b arch/x86/lib/built-in.o
                0x00000000011025e6                pci_setup_type1
 .text.copy_uboot_to_ram
                0x0000000001102631       0x21 arch/x86/lib/built-in.o
                0x0000000001102631                copy_uboot_to_ram
 .text.clear_bss
                0x0000000001102652       0x23 arch/x86/lib/built-in.o
                0x0000000001102652                clear_bss
 .text.do_elf_reloc_fixups
                0x0000000001102675       0x5d arch/x86/lib/built-in.o
                0x0000000001102675                do_elf_reloc_fixups
 .text.memset   0x00000000011026d2       0x43 arch/x86/lib/built-in.o
                0x00000000011026d2                memset
 .text.memcpy   0x0000000001102715       0x30 arch/x86/lib/built-in.o
                0x0000000001102715                memcpy
 .text.timer_set_base
                0x0000000001102745       0x14 arch/x86/lib/built-in.o
                0x0000000001102745                timer_set_base
 .text.get_ticks
                0x0000000001102759       0x45 arch/x86/lib/built-in.o
                0x0000000001102759                get_ticks
 .text.get_tbclk
                0x000000000110279e        0xc arch/x86/lib/built-in.o
                0x000000000110279e                get_tbclk
 .text.get_timer
                0x00000000011027aa       0x40 arch/x86/lib/built-in.o
                0x00000000011027aa                get_timer
 .text.timer_get_us
                0x00000000011027ea       0x31 arch/x86/lib/built-in.o
                0x00000000011027ea                timer_get_us
 .text.__udelay
                0x000000000110281b       0x47 arch/x86/lib/built-in.o
                0x000000000110281b                __udelay
 .text.timer_init
                0x0000000001102862        0x3 arch/x86/lib/built-in.o
                0x0000000001102862                timer_init
 .text.load_zimage
                0x0000000001102865      0x269 arch/x86/lib/built-in.o
                0x0000000001102865                load_zimage
 .text.setup_zimage
                0x0000000001102ace      0x187 arch/x86/lib/built-in.o
                0x0000000001102ace                setup_zimage
 .text.boot_zimage
                0x0000000001102c55       0x42 arch/x86/lib/built-in.o
                0x0000000001102c55                boot_zimage
 .text.__setup_pcat_compatibility
                0x0000000001102c97        0x1 arch/x86/lib/built-in.o
                0x0000000001102c97                __setup_pcat_compatibility
                0x0000000001102c97                setup_pcat_compatibility
 .text.do_zboot
                0x0000000001102c98       0xff arch/x86/lib/built-in.o
                0x0000000001102c98                do_zboot
 .text.sfi_table_check
                0x0000000001102d97       0x59 arch/x86/lib/built-in.o
 .text.sfi_search_mmap
                0x0000000001102df0       0x93 arch/x86/lib/built-in.o
 .text.sfi_setup_e820
                0x0000000001102e83       0xfd arch/x86/lib/built-in.o
                0x0000000001102e83                sfi_setup_e820
 .text.sfi_get_ram_size
                0x0000000001102f80       0xc4 arch/x86/lib/built-in.o
                0x0000000001102f80                sfi_get_ram_size
 .text          0x0000000001103044        0x5 board/intel/edison/built-in.o
                0x0000000001103044                early_board_init
 .text.board_usb_init
                0x0000000001103049        0x5 board/intel/edison/built-in.o
                0x0000000001103049                board_usb_init
 .text.watchdog_reset
                0x000000000110304e       0x34 board/intel/edison/built-in.o
                0x000000000110304e                watchdog_reset
 .text.main_loop
                0x0000000001103082       0xe1 common/built-in.o
                0x0000000001103082                main_loop
 .text.readline
                0x0000000001103163       0x13 common/built-in.o
                0x0000000001103163                readline
 .text.readline_into_buffer
                0x0000000001103176      0x1c2 common/built-in.o
                0x0000000001103176                readline_into_buffer
 .text.run_command
                0x0000000001103338        0xa common/built-in.o
                0x0000000001103338                run_command
 .text.run_command_list
                0x0000000001103342       0x4a common/built-in.o
                0x0000000001103342                run_command_list
 .text.do_run   0x000000000110338c       0x61 common/built-in.o
                0x000000000110338c                do_run
 .text.delete_char.part.0
                0x00000000011033ed       0x78 common/built-in.o
 .text._do_help
                0x0000000001103465      0x135 common/built-in.o
                0x0000000001103465                _do_help
 .text.find_cmd_tbl
                0x000000000110359a       0x7a common/built-in.o
                0x000000000110359a                find_cmd_tbl
 .text.find_cmd
                0x0000000001103614       0x1e common/built-in.o
                0x0000000001103614                find_cmd
 .text.cmd_usage
                0x0000000001103632       0x5d common/built-in.o
                0x0000000001103632                cmd_usage
 .text.var_complete
                0x000000000110368f       0x71 common/built-in.o
                0x000000000110368f                var_complete
 .text.cmd_auto_complete
                0x0000000001103700      0x3ca common/built-in.o
                0x0000000001103700                cmd_auto_complete
 .text.cmd_get_data_size
                0x0000000001103aca       0x36 common/built-in.o
                0x0000000001103aca                cmd_get_data_size
 .text.cmd_process
                0x0000000001103b00       0xc8 common/built-in.o
                0x0000000001103b00                cmd_process
 .text.dummy    0x0000000001103bc8        0x1 common/built-in.o
 .text.get_version
                0x0000000001103bc9        0x6 common/built-in.o
                0x0000000001103bc9                get_version
 .text.jumptable_init
                0x0000000001103bcf      0x1d6 common/built-in.o
                0x0000000001103bcf                jumptable_init
 .text.find_hash_algo
                0x0000000001103da5       0x38 common/built-in.o
 .text.hash_command
                0x0000000001103ddd      0x165 common/built-in.o
                0x0000000001103ddd                hash_command
 .text.syntax_err
                0x0000000001103f42        0xf common/built-in.o
 .text.b_addchr
                0x0000000001103f51       0x57 common/built-in.o
 .text.b_reset  0x0000000001103fa8       0x18 common/built-in.o
 .text.b_addqchr
                0x0000000001103fc0       0x36 common/built-in.o
 .text.static_get
                0x0000000001103ff6       0x12 common/built-in.o
 .text.static_peek
                0x0000000001104008        0x6 common/built-in.o
 .text.file_get
                0x000000000110400e      0x1a1 common/built-in.o
 .text.file_peek
                0x00000000011041af        0x6 common/built-in.o
 .text.run_list_real
                0x00000000011041b5      0x6a8 common/built-in.o
 .text.free_pipe_list
                0x000000000110485d       0xac common/built-in.o
 .text.get_local_var
                0x0000000001104909       0x69 common/built-in.o
                0x0000000001104909                get_local_var
 .text.set_local_var
                0x0000000001104972      0x14d common/built-in.o
                0x0000000001104972                set_local_var
 .text.is_assignment
                0x0000000001104abf       0x36 common/built-in.o
 .text.new_pipe
                0x0000000001104af5       0x2d common/built-in.o
 .text.done_word
                0x0000000001104b22      0x24c common/built-in.o
 .text.done_command
                0x0000000001104d6e       0x5a common/built-in.o
 .text.done_pipe
                0x0000000001104dc8       0x3a common/built-in.o
 .text.mapset   0x0000000001104e02       0x11 common/built-in.o
 .text.parse_stream_outer
                0x0000000001104e13      0x5db common/built-in.o
 .text.parse_string_outer
                0x00000000011053ee       0xc6 common/built-in.o
                0x00000000011053ee                parse_string_outer
 .text.parse_file_outer
                0x00000000011054b4       0x3a common/built-in.o
                0x00000000011054b4                parse_file_outer
 .text.u_boot_hush_start
                0x00000000011054ee       0x3d common/built-in.o
                0x00000000011054ee                u_boot_hush_start
 .text.xmalloc  0x000000000110552b       0x1a common/built-in.o
 .text.xrealloc
                0x0000000001105545       0x1a common/built-in.o
 .text.insert_var_value_sub
                0x000000000110555f      0x241 common/built-in.o
 .text.do_showvar
                0x00000000011057a0       0xda common/built-in.o
 .text.srec_decode
                0x000000000110587a      0x1eb common/built-in.o
                0x000000000110587a                srec_decode
 .text.hex1_bin
                0x0000000001105a65       0x28 common/built-in.o
 .text.hex2_bin
                0x0000000001105a8d       0x2c common/built-in.o
 .text.xyzModem_flush
                0x0000000001105ab9       0x10 common/built-in.o
 .text.xyzModem_get_hdr
                0x0000000001105ac9      0x1a9 common/built-in.o
 .text.xyzModem_stream_open
                0x0000000001105c72      0x21f common/built-in.o
                0x0000000001105c72                xyzModem_stream_open
 .text.xyzModem_stream_read
                0x0000000001105e91      0x1f1 common/built-in.o
                0x0000000001105e91                xyzModem_stream_read
 .text.xyzModem_stream_close
                0x0000000001106082       0x56 common/built-in.o
                0x0000000001106082                xyzModem_stream_close
 .text.xyzModem_stream_terminate
                0x00000000011060d8       0x83 common/built-in.o
                0x00000000011060d8                xyzModem_stream_terminate
 .text.xyzModem_error
                0x000000000110615b       0x16 common/built-in.o
                0x000000000110615b                xyzModem_error
 .text.CYGACC_COMM_IF_GETC_TIMEOUT.isra.0
                0x0000000001106171       0x39 common/built-in.o
 .text.print_cpuinfo
                0x00000000011061aa        0x3 common/built-in.o
 .text.trace_early_init
                0x00000000011061ad        0x3 common/built-in.o
 .text.init_func_watchdog_init
                0x00000000011061b0       0x12 common/built-in.o
 .text.init_func_watchdog_reset
                0x00000000011061c2        0x8 common/built-in.o
                0x00000000011061c2                init_func_watchdog_reset
 .text.__board_add_ram_info
                0x00000000011061ca        0x1 common/built-in.o
                0x00000000011061ca                __board_add_ram_info
                0x00000000011061ca                board_add_ram_info
 .text.init_baud_rate
                0x00000000011061cb       0x23 common/built-in.o
 .text.display_text_info
                0x00000000011061ee        0x3 common/built-in.o
 .text.announce_dram_init
                0x00000000011061f1        0xd common/built-in.o
 .text.show_dram_config
                0x00000000011061fe       0x37 common/built-in.o
 .text.setup_mon_len
                0x0000000001106235       0x10 common/built-in.o
 .text.arch_cpu_init
                0x0000000001106245        0x3 common/built-in.o
                0x0000000001106245                arch_cpu_init
 .text.setup_dest_addr
                0x0000000001106248       0x46 common/built-in.o
 .text.reserve_round_4k
                0x000000000110628e       0x10 common/built-in.o
 .text.reserve_trace
                0x000000000110629e        0x3 common/built-in.o
 .text.reserve_uboot
                0x00000000011062a1       0x36 common/built-in.o
 .text.reserve_malloc
                0x00000000011062d7       0x1c common/built-in.o
 .text.reserve_board
                0x00000000011062f3       0x33 common/built-in.o
 .text.setup_machine
                0x0000000001106326        0x3 common/built-in.o
 .text.reserve_global_data
                0x0000000001106329       0x23 common/built-in.o
 .text.reserve_stacks
                0x000000000110634c       0x2a common/built-in.o
 .text.display_new_sp
                0x0000000001106376        0x3 common/built-in.o
 .text.setup_baud_rate
                0x0000000001106379       0x18 common/built-in.o
 .text.setup_dram_config
                0x0000000001106391        0x8 common/built-in.o
 .text.setup_reloc
                0x0000000001106399       0x36 common/built-in.o
 .text.jump_to_copy
                0x00000000011063cf        0xe common/built-in.o
 .text.mark_bootstage
                0x00000000011063dd        0xd common/built-in.o
 .text.board_init_f
                0x00000000011063ea       0x26 common/built-in.o
                0x00000000011063ea                board_init_f
 .text.board_init_f_r
                0x0000000001106410       0x35 common/built-in.o
                0x0000000001106410                board_init_f_r
 .text.bootstage_relocate
                0x0000000001106445        0x3 common/built-in.o
 .text.__cpu_secondary_init_r
                0x0000000001106448        0x1 common/built-in.o
                0x0000000001106448                cpu_secondary_init_r
                0x0000000001106448                __cpu_secondary_init_r
 .text.initr_secondary_cpu
                0x0000000001106449        0x8 common/built-in.o
 .text.initr_trace
                0x0000000001106451        0x3 common/built-in.o
 .text.initr_reloc
                0x0000000001106454       0x17 common/built-in.o
 .text.initr_reloc_global_data
                0x000000000110646b       0x17 common/built-in.o
 .text.initr_serial
                0x0000000001106482        0x8 common/built-in.o
 .text.initr_pci
                0x000000000110648a        0x8 common/built-in.o
 .text.initr_barrier
                0x0000000001106492        0x3 common/built-in.o
 .text.initr_malloc
                0x0000000001106495       0x1b common/built-in.o
 .text.power_init_board
                0x00000000011064b0        0x3 common/built-in.o
                0x00000000011064b0                power_init_board
 .text.initr_announce
                0x00000000011064b3        0x3 common/built-in.o
 .text.initr_mmc
                0x00000000011064b6       0x1a common/built-in.o
                0x00000000011064b6                initr_mmc
 .text.initr_env
                0x00000000011064d0       0x22 common/built-in.o
 .text.initr_jumptable
                0x00000000011064f2        0x8 common/built-in.o
 .text.run_main_loop
                0x00000000011064fa        0x7 common/built-in.o
 .text.board_init_r
                0x0000000001106501        0xf common/built-in.o
                0x0000000001106501                board_init_r
 .text.do_go    0x0000000001106510       0x64 common/built-in.o
 .text.__arch_preboot_os
                0x0000000001106574        0x1 common/built-in.o
                0x0000000001106574                arch_preboot_os
 .text.do_bootm_standalone
                0x0000000001106575       0x43 common/built-in.o
 .text.do_bootm
                0x00000000011065b8       0xae common/built-in.o
                0x00000000011065b8                do_bootm
 .text.do_bootd
                0x0000000001106666       0x1b common/built-in.o
                0x0000000001106666                do_bootd
 .text.copy_args
                0x0000000001106681       0x3f common/built-in.o
 .text.do_bootm_netbsd
                0x00000000011066c0       0xdb common/built-in.o
 .text.do_bootm_rtems
                0x000000000110679b       0x43 common/built-in.o
 .text.do_bootm_plan9
                0x00000000011067de       0x90 common/built-in.o
 .text.do_bootm_qnxelf
                0x000000000110686e       0x5a common/built-in.o
 .text.do_bootm_states.isra.21.constprop.22
                0x00000000011068c8      0x636 common/built-in.o
 .text.do_help  0x0000000001106efe       0x3c common/built-in.o
 .text.do_version
                0x0000000001106f3a       0x31 common/built-in.o
 .text.env_attr_walk
                0x0000000001106f6b       0xd7 common/built-in.o
                0x0000000001106f6b                env_attr_walk
 .text.env_attr_lookup
                0x0000000001107042      0x122 common/built-in.o
                0x0000000001107042                env_attr_lookup
 .text.find_env_callback
                0x0000000001107164       0x41 common/built-in.o
 .text.env_callback_init
                0x00000000011071a5       0x93 common/built-in.o
                0x00000000011071a5                env_callback_init
 .text.clear_callback
                0x0000000001107238        0xa common/built-in.o
 .text.set_callback
                0x0000000001107242       0x87 common/built-in.o
 .text.on_callbacks
                0x00000000011072c9       0x31 common/built-in.o
 .text.env_flags_print_vartypes
                0x00000000011072fa       0x33 common/built-in.o
                0x00000000011072fa                env_flags_print_vartypes
 .text.env_flags_print_varaccess
                0x000000000110732d       0x33 common/built-in.o
                0x000000000110732d                env_flags_print_varaccess
 .text.env_flags_get_vartype_name
                0x0000000001107360        0x8 common/built-in.o
                0x0000000001107360                env_flags_get_vartype_name
 .text.env_flags_get_varaccess_name
                0x0000000001107368        0x8 common/built-in.o
                0x0000000001107368                env_flags_get_varaccess_name
 .text.env_flags_parse_vartype
                0x0000000001107370       0x41 common/built-in.o
                0x0000000001107370                env_flags_parse_vartype
 .text.env_flags_parse_varaccess
                0x00000000011073b1       0x44 common/built-in.o
                0x00000000011073b1                env_flags_parse_varaccess
 .text.env_flags_parse_varaccess_from_binflags
                0x00000000011073f5       0x20 common/built-in.o
                0x00000000011073f5                env_flags_parse_varaccess_from_binflags
 .text.env_flags_init
                0x0000000001107415       0x95 common/built-in.o
                0x0000000001107415                env_flags_init
 .text.clear_flags
                0x00000000011074aa        0xa common/built-in.o
 .text.set_flags
                0x00000000011074b4       0x93 common/built-in.o
 .text.on_flags
                0x0000000001107547       0x31 common/built-in.o
 .text.env_flags_validate
                0x0000000001107578      0x1c0 common/built-in.o
                0x0000000001107578                env_flags_validate
 .text.mmc_get_env_addr
                0x0000000001107738       0x14 common/built-in.o
                0x0000000001107738                mmc_get_env_addr
 .text.env_init
                0x000000000110774c       0x1d common/built-in.o
                0x000000000110774c                env_init
 .text.init_mmc_for_env
                0x0000000001107769       0x40 common/built-in.o
 .text.saveenv  0x00000000011077a9      0x190 common/built-in.o
                0x00000000011077a9                saveenv
 .text.env_relocate_spec
                0x0000000001107939      0x21a common/built-in.o
                0x0000000001107939                env_relocate_spec
 .text.source   0x0000000001107b53       0xa1 common/built-in.o
                0x0000000001107b53                source
 .text.do_source
                0x0000000001107bf4       0x40 common/built-in.o
                0x0000000001107bf4                do_source
 .text.print_num
                0x0000000001107c34       0x1b common/built-in.o
 .text.do_bdinfo
                0x0000000001107c4f      0x114 common/built-in.o
                0x0000000001107c4f                do_bdinfo
 .text.invalidate_icache_all
                0x0000000001107d63        0xa common/built-in.o
                0x0000000001107d63                invalidate_icache_all
 .text.do_icache
                0x0000000001107d6d       0x70 common/built-in.o
                0x0000000001107d6d                do_icache
 .text.flush_dcache_all
                0x0000000001107ddd        0xa common/built-in.o
                0x0000000001107ddd                flush_dcache_all
 .text.do_dcache
                0x0000000001107de7       0x70 common/built-in.o
                0x0000000001107de7                do_dcache
 .text.parse_argv
                0x0000000001107e57       0x44 common/built-in.o
 .text.do_coninfo
                0x0000000001107e9b       0xb9 common/built-in.o
 .text.do_echo  0x0000000001107f54       0x8e common/built-in.o
 .text.do_bootelf_exec
                0x0000000001107fe2       0x36 common/built-in.o
                0x0000000001107fe2                do_bootelf_exec
 .text.valid_elf_image
                0x0000000001108018       0x3c common/built-in.o
                0x0000000001108018                valid_elf_image
 .text.do_bootelf
                0x0000000001108054      0x10c common/built-in.o
                0x0000000001108054                do_bootelf
 .text.do_bootvx
                0x0000000001108160      0x200 common/built-in.o
                0x0000000001108160                do_bootvx
 .text.load_elf_image_shdr
                0x0000000001108360       0x5b common/built-in.o
 .text.do_exit  0x00000000011083bb       0x24 common/built-in.o
 .text.do_ext4_load
                0x00000000011083df       0x1d common/built-in.o
                0x00000000011083df                do_ext4_load
 .text.do_ext4_ls
                0x00000000011083fc       0x1d common/built-in.o
                0x00000000011083fc                do_ext4_ls
 .text.do_ext4_write
                0x0000000001108419       0xf8 common/built-in.o
                0x0000000001108419                do_ext4_write
 .text.do_fat_fsload
                0x0000000001108511       0x1d common/built-in.o
                0x0000000001108511                do_fat_fsload
 .text.do_fat_ls
                0x000000000110852e       0x1d common/built-in.o
 .text.do_fat_fsinfo
                0x000000000110854b       0x8e common/built-in.o
 .text.do_fat_fswrite
                0x00000000011085d9      0x100 common/built-in.o
 .text.do_load_wrapper
                0x00000000011086d9       0x1d common/built-in.o
                0x00000000011086d9                do_load_wrapper
 .text.do_ls_wrapper
                0x00000000011086f6       0x1d common/built-in.o
                0x00000000011086f6                do_ls_wrapper
 .text.do_gettime
                0x0000000001108713       0x67 common/built-in.o
 .text.do_hash  0x000000000110877a       0x56 common/built-in.o
 .text.rstrip   0x00000000011087d0       0x25 common/built-in.o
 .text.find_char_or_comment
                0x00000000011087f5       0x2a common/built-in.o
 .text.ini_handler
                0x000000000110881f       0x44 common/built-in.o
 .text.do_ini   0x0000000001108863       0x6b common/built-in.o
 .text.ini_parse.constprop.1
                0x00000000011088ce      0x213 common/built-in.o
 .text.do_interrupts
                0x0000000001108ae1       0x37 common/built-in.o
 .text.evalexp  0x0000000001108b18       0x5a common/built-in.o
 .text.evalstr  0x0000000001108b72       0x47 common/built-in.o
 .text.binary_test
                0x0000000001108bb9      0x12d common/built-in.o
 .text.do_itest
                0x0000000001108ce6       0x70 common/built-in.o
 .text.do_load_serial
                0x0000000001108d56       0xb7 common/built-in.o
 .text.load_serial
                0x0000000001108e0d      0x183 common/built-in.o
 .text.do_load_serial_bin
                0x0000000001108f90      0x6fe common/built-in.o
 .text.bin_data_init
                0x000000000110968e       0x15 common/built-in.o
 .text.bin_data_char
                0x00000000011096a3       0x1b common/built-in.o
 .text.k_data_save
                0x00000000011096be       0x1f common/built-in.o
 .text.k_data_restore
                0x00000000011096dd       0x1f common/built-in.o
 .text.getcxmodem
                0x00000000011096fc       0x12 common/built-in.o
 .text.load_serial_ymodem
                0x000000000110970e       0xb6 common/built-in.o
 .text.chk1.constprop.1
                0x00000000011097c4       0x21 common/built-in.o
 .text.s1_sendpacket.constprop.2
                0x00000000011097e5       0x30 common/built-in.o
 .text.do_mem_md
                0x0000000001109815       0xb4 common/built-in.o
 .text.do_mem_mm
                0x00000000011098c9        0xa common/built-in.o
 .text.do_mem_nm
                0x00000000011098d3        0x7 common/built-in.o
 .text.do_mem_mw
                0x00000000011098da       0xa4 common/built-in.o
 .text.do_mem_cmp
                0x000000000110997e      0x164 common/built-in.o
 .text.do_mem_cp
                0x0000000001109ae2       0xbd common/built-in.o
 .text.do_mem_base
                0x0000000001109b9f       0x39 common/built-in.o
 .text.do_mem_loop
                0x0000000001109bd8       0xb6 common/built-in.o
 .text.do_mem_crc
                0x0000000001109c8e       0x33 common/built-in.o
 .text.board_show_dram
                0x0000000001109cc1       0x1c common/built-in.o
                0x0000000001109cc1                board_show_dram
 .text.do_mem_info
                0x0000000001109cdd       0x11 common/built-in.o
 .text.mod_mem.isra.2
                0x0000000001109cee      0x142 common/built-in.o
 .text.do_sleep
                0x0000000001109e30       0x52 common/built-in.o
 .text.do_timer
                0x0000000001109e82       0x7c common/built-in.o
 .text.do_mmcinfo
                0x0000000001109efe      0x18e common/built-in.o
 .text.do_mmcops
                0x000000000110a08c      0x718 common/built-in.o
 .text.do_part_info
                0x000000000110a7a4      0x105 common/built-in.o
                0x000000000110a7a4                do_part_info
 .text.do_part_find
                0x000000000110a8a9      0x168 common/built-in.o
                0x000000000110a8a9                do_part_find
 .text.do_part_uuid
                0x000000000110aa11       0x6f common/built-in.o
                0x000000000110aa11                do_part_uuid
 .text.do_part_list
                0x000000000110aa80       0x31 common/built-in.o
                0x000000000110aa80                do_part_list
 .text.do_part  0x000000000110aab1       0x8b common/built-in.o
                0x000000000110aab1                do_part
 .text.pciinfo  0x000000000110ab3c       0xfe common/built-in.o
                0x000000000110ab3c                pciinfo
 .text.pci_header_show_brief
                0x000000000110ac3a       0x7b common/built-in.o
                0x000000000110ac3a                pci_header_show_brief
 .text.pci_header_show
                0x000000000110acb5      0xa5c common/built-in.o
                0x000000000110acb5                pci_header_show
 .text.pci_cfg_write
                0x000000000110b711       0x2e common/built-in.o
 .text.do_pci   0x000000000110b73f      0x34a common/built-in.o
 .text.pci_cfg_modify.isra.0
                0x000000000110ba89      0x111 common/built-in.o
 .text.do_portio_out
                0x000000000110bb9a       0x82 common/built-in.o
                0x000000000110bb9a                do_portio_out
 .text.do_portio_in
                0x000000000110bc1c       0x9b common/built-in.o
                0x000000000110bc1c                do_portio_in
 .text.do_read  0x000000000110bcb7      0x142 common/built-in.o
                0x000000000110bcb7                do_read
 .text.do_reginfo
                0x000000000110bdf9        0x3 common/built-in.o
 .text.do_sha1sum
                0x000000000110bdfc       0x36 common/built-in.o
                0x000000000110bdfc                do_sha1sum
 .text.get_arg  0x000000000110be32       0x3b common/built-in.o
 .text.do_setexpr
                0x000000000110be6d       0xd5 common/built-in.o
 .text.do_test  0x000000000110bf42      0x28e common/built-in.o
 .text.do_false
                0x000000000110c1d0        0x6 common/built-in.o
 .text.do_true  0x000000000110c1d6        0x3 common/built-in.o
 .text.do_dfu   0x000000000110c1d9      0x129 common/built-in.o
 .text.extract_env
                0x000000000110c302       0xcc common/built-in.o
 .text.extract_val
                0x000000000110c3ce       0x6e common/built-in.o
 .text.do_gpt   0x000000000110c43c      0x3ec common/built-in.o
 .text.env_print
                0x000000000110c828       0xce common/built-in.o
 .text.do_env_print
                0x000000000110c8f6       0x99 common/built-in.o
 .text.do_env_grep
                0x000000000110c98f       0xbf common/built-in.o
 .text.setenv   0x000000000110ca4e       0x4f common/built-in.o
                0x000000000110ca4e                setenv
 .text.setenv_hex
                0x000000000110ca9d       0x2e common/built-in.o
                0x000000000110ca9d                setenv_hex
 .text.do_env_set
                0x000000000110cacb       0x14 common/built-in.o
 .text.do_env_ask
                0x000000000110cadf      0x121 common/built-in.o
                0x000000000110cadf                do_env_ask
 .text.print_static_binding
                0x000000000110cc00       0x1d common/built-in.o
 .text.print_active_callback
                0x000000000110cc1d       0x65 common/built-in.o
 .text.do_env_callback
                0x000000000110cc82      0x10f common/built-in.o
                0x000000000110cc82                do_env_callback
 .text.print_static_flags
                0x000000000110cd91       0x49 common/built-in.o
 .text.print_active_flags
                0x000000000110cdda       0x4a common/built-in.o
 .text.do_env_flags
                0x000000000110ce24      0x143 common/built-in.o
                0x000000000110ce24                do_env_flags
 .text.do_env_edit
                0x000000000110cf67       0x6e common/built-in.o
 .text.getenv   0x000000000110cfd5       0x95 common/built-in.o
                0x000000000110cfd5                getenv
 .text.getenv_f
                0x000000000110d06a       0xb5 common/built-in.o
                0x000000000110d06a                getenv_f
 .text.getenv_ulong
                0x000000000110d11f       0x1f common/built-in.o
                0x000000000110d11f                getenv_ulong
 .text.do_env_save
                0x000000000110d13e       0x29 common/built-in.o
 .text.envmatch
                0x000000000110d167       0x57 common/built-in.o
                0x000000000110d167                envmatch
 .text.do_env_default
                0x000000000110d1be       0x68 common/built-in.o
 .text.do_env_delete
                0x000000000110d226       0x68 common/built-in.o
 .text.do_env_export
                0x000000000110d28e      0x231 common/built-in.o
 .text.do_env_import
                0x000000000110d4bf      0x1e7 common/built-in.o
 .text.do_env_exists
                0x000000000110d6a6       0x61 common/built-in.o
 .text.do_env   0x000000000110d707       0x51 common/built-in.o
 .text._do_env_set.isra.0
                0x000000000110d758      0x17e common/built-in.o
 .text.__env_get_char_spec
                0x000000000110d8d6        0xe common/built-in.o
                0x000000000110d8d6                env_get_char_spec
 .text.env_get_char_memory
                0x000000000110d8e4        0x8 common/built-in.o
                0x000000000110d8e4                env_get_char_memory
 .text.env_get_char
                0x000000000110d8ec       0x2b common/built-in.o
                0x000000000110d8ec                env_get_char
 .text.env_get_addr
                0x000000000110d917       0x1e common/built-in.o
                0x000000000110d917                env_get_addr
 .text.getenv_yesno
                0x000000000110d935       0x2a common/built-in.o
                0x000000000110d935                getenv_yesno
 .text.getenv_default
                0x000000000110d95f       0x4e common/built-in.o
                0x000000000110d95f                getenv_default
 .text.set_default_env
                0x000000000110d9ad       0xa8 common/built-in.o
                0x000000000110d9ad                set_default_env
 .text.set_default_vars
                0x000000000110da55       0x32 common/built-in.o
                0x000000000110da55                set_default_vars
 .text.env_import
                0x000000000110da87       0xc8 common/built-in.o
                0x000000000110da87                env_import
 .text.env_relocate
                0x000000000110db4f       0x25 common/built-in.o
                0x000000000110db4f                env_relocate
 .text.env_complete
                0x000000000110db74       0xac common/built-in.o
                0x000000000110db74                env_complete
 .text.on_console
                0x000000000110dc20       0x96 common/built-in.o
 .text.console_setfile
                0x000000000110dcb6       0x8d common/built-in.o
 .text.serial_printf
                0x000000000110dd43       0x2f common/built-in.o
                0x000000000110dd43                serial_printf
 .text.fgetc    0x000000000110dd72       0x14 common/built-in.o
                0x000000000110dd72                fgetc
 .text.ftstc    0x000000000110dd86       0x14 common/built-in.o
                0x000000000110dd86                ftstc
 .text.fputc    0x000000000110dd9a       0x13 common/built-in.o
                0x000000000110dd9a                fputc
 .text.getc     0x000000000110ddad       0x27 common/built-in.o
                0x000000000110ddad                getc
 .text.tstc     0x000000000110ddd4       0x27 common/built-in.o
                0x000000000110ddd4                tstc
 .text.putc     0x000000000110ddfb       0x2f common/built-in.o
                0x000000000110ddfb                putc
 .text.puts     0x000000000110de2a       0x2a common/built-in.o
                0x000000000110de2a                puts
 .text.printf   0x000000000110de54       0x3d common/built-in.o
                0x000000000110de54                printf
 .text.vprintf  0x000000000110de91       0x34 common/built-in.o
                0x000000000110de91                vprintf
 .text.ctrlc    0x000000000110dec5       0x38 common/built-in.o
                0x000000000110dec5                ctrlc
 .text.had_ctrlc
                0x000000000110defd        0x6 common/built-in.o
                0x000000000110defd                had_ctrlc
 .text.clear_ctrlc
                0x000000000110df03        0xb common/built-in.o
                0x000000000110df03                clear_ctrlc
 .text.search_device
                0x000000000110df0e       0x18 common/built-in.o
                0x000000000110df0e                search_device
 .text.console_assign
                0x000000000110df26       0x32 common/built-in.o
                0x000000000110df26                console_assign
 .text.console_init_f
                0x000000000110df58       0x10 common/built-in.o
                0x000000000110df58                console_init_f
 .text.stdio_print_current_devices
                0x000000000110df68       0x9e common/built-in.o
                0x000000000110df68                stdio_print_current_devices
 .text.console_init_r
                0x000000000110e006       0x99 common/built-in.o
                0x000000000110e006                console_init_r
 .text.sbrk     0x000000000110e09f       0x3a common/built-in.o
                0x000000000110e09f                sbrk
 .text.mem_malloc_init
                0x000000000110e0d9       0x1c common/built-in.o
                0x000000000110e0d9                mem_malloc_init
 .text.malloc   0x000000000110e0f5      0x4f3 common/built-in.o
                0x000000000110e0f5                malloc
 .text.free     0x000000000110e5e8      0x1c2 common/built-in.o
                0x000000000110e5e8                free
 .text.realloc  0x000000000110e7aa      0x36c common/built-in.o
                0x000000000110e7aa                realloc
 .text.memalign
                0x000000000110eb16       0xcd common/built-in.o
                0x000000000110eb16                memalign
 .text.calloc   0x000000000110ebe3       0xb6 common/built-in.o
                0x000000000110ebe3                calloc
 .text.malloc_trim
                0x000000000110ec99       0x91 common/built-in.o
                0x000000000110ec99                malloc_trim
 .text.image_check_hcrc
                0x000000000110ed2a       0x41 common/built-in.o
                0x000000000110ed2a                image_check_hcrc
 .text.image_check_dcrc
                0x000000000110ed6b       0x34 common/built-in.o
                0x000000000110ed6b                image_check_dcrc
 .text.image_multi_count
                0x000000000110ed9f        0xf common/built-in.o
                0x000000000110ed9f                image_multi_count
 .text.image_multi_getimg
                0x000000000110edae       0x6a common/built-in.o
                0x000000000110edae                image_multi_getimg
 .text.image_print_contents
                0x000000000110ee18      0x184 common/built-in.o
                0x000000000110ee18                image_print_contents
 .text.on_loadaddr
                0x000000000110ef9c       0x1f common/built-in.o
 .text.memmove_wd
                0x000000000110efbb       0x3b common/built-in.o
                0x000000000110efbb                memmove_wd
 .text.genimg_print_size
                0x000000000110eff6       0x28 common/built-in.o
                0x000000000110eff6                genimg_print_size
 .text.get_table_entry_name
                0x000000000110f01e       0x19 common/built-in.o
                0x000000000110f01e                get_table_entry_name
 .text.genimg_get_os_name
                0x000000000110f037       0x12 common/built-in.o
                0x000000000110f037                genimg_get_os_name
 .text.genimg_get_arch_name
                0x000000000110f049       0x12 common/built-in.o
                0x000000000110f049                genimg_get_arch_name
 .text.genimg_get_type_name
                0x000000000110f05b       0x12 common/built-in.o
                0x000000000110f05b                genimg_get_type_name
 .text.genimg_get_comp_name
                0x000000000110f06d       0x12 common/built-in.o
                0x000000000110f06d                genimg_get_comp_name
 .text.genimg_get_format
                0x000000000110f07f       0x15 common/built-in.o
                0x000000000110f07f                genimg_get_format
 .text.genimg_get_image
                0x000000000110f094        0x1 common/built-in.o
                0x000000000110f094                genimg_get_image
 .text.boot_get_ramdisk
                0x000000000110f095      0x20a common/built-in.o
                0x000000000110f095                boot_get_ramdisk
 .text.get_effective_memsize
                0x000000000110f29f       0x11 common/built-in.o
                0x000000000110f29f                get_effective_memsize
 .text.stdio_get_list
                0x000000000110f2b0        0x6 common/built-in.o
                0x000000000110f2b0                stdio_get_list
 .text.stdio_get_by_name
                0x000000000110f2b6       0x34 common/built-in.o
                0x000000000110f2b6                stdio_get_by_name
 .text.stdio_clone
                0x000000000110f2ea       0x32 common/built-in.o
                0x000000000110f2ea                stdio_clone
 .text.stdio_register
                0x000000000110f31c       0x2b common/built-in.o
                0x000000000110f31c                stdio_register
 .text.stdio_init
                0x000000000110f347       0x6c common/built-in.o
                0x000000000110f347                stdio_init
 .text.get_dev  0x000000000110f3b3       0x48 disk/built-in.o
                0x000000000110f3b3                get_dev
 .text.dev_print
                0x000000000110f3fb      0x1c5 disk/built-in.o
                0x000000000110f3fb                dev_print
 .text.init_part
                0x000000000110f5c0       0x37 disk/built-in.o
                0x000000000110f5c0                init_part
 .text.print_part_header
                0x000000000110f5f7       0x83 disk/built-in.o
 .text.print_part
                0x000000000110f67a       0x59 disk/built-in.o
                0x000000000110f67a                print_part
 .text.get_partition_info
                0x000000000110f6d3       0x3a disk/built-in.o
                0x000000000110f6d3                get_partition_info
 .text.get_device
                0x000000000110f70d       0x7a disk/built-in.o
                0x000000000110f70d                get_device
 .text.get_device_and_partition
                0x000000000110f787      0x397 disk/built-in.o
                0x000000000110f787                get_device_and_partition
 .text.test_part_mac
                0x000000000110fb1e       0x61 disk/built-in.o
                0x000000000110fb1e                test_part_mac
 .text.print_part_mac
                0x000000000110fb7f      0x1e3 disk/built-in.o
                0x000000000110fb7f                print_part_mac
 .text.part_mac_read_ddb
                0x000000000110fd62       0x3b disk/built-in.o
 .text.get_partition_info_mac
                0x000000000110fd9d      0x11f disk/built-in.o
                0x000000000110fd9d                get_partition_info_mac
 .text.test_block_type
                0x000000000110febc       0x5f disk/built-in.o
 .text.test_part_dos
                0x000000000110ff1b       0x4d disk/built-in.o
                0x000000000110ff1b                test_part_dos
 .text.print_partition_extended
                0x000000000110ff68      0x22d disk/built-in.o
 .text.get_partition_info_extended
                0x0000000001110195      0x2e8 disk/built-in.o
 .text.print_part_dos
                0x000000000111047d       0x31 disk/built-in.o
                0x000000000111047d                print_part_dos
 .text.get_partition_info_dos
                0x00000000011104ae       0x27 disk/built-in.o
                0x00000000011104ae                get_partition_info_dos
 .text.print_efiname
                0x00000000011104d5       0x33 disk/built-in.o
 .text.print_part_efi
                0x0000000001110508      0x16d disk/built-in.o
                0x0000000001110508                print_part_efi
 .text.get_partition_info_efi
                0x0000000001110675      0x141 disk/built-in.o
                0x0000000001110675                get_partition_info_efi
 .text.test_part_efi
                0x00000000011107b6       0xa2 disk/built-in.o
                0x00000000011107b6                test_part_efi
 .text.set_protective_mbr
                0x0000000001110858       0xb5 disk/built-in.o
 .text.write_gpt_table
                0x000000000111090d      0x111 disk/built-in.o
                0x000000000111090d                write_gpt_table
 .text.gpt_fill_pte
                0x0000000001110a1e      0x167 disk/built-in.o
                0x0000000001110a1e                gpt_fill_pte
 .text.gpt_fill_header
                0x0000000001110b85       0x9d disk/built-in.o
                0x0000000001110b85                gpt_fill_header
 .text.gpt_restore
                0x0000000001110c22       0xe0 disk/built-in.o
                0x0000000001110c22                gpt_restore
 .text.is_pte_valid
                0x0000000001110d02       0x4f disk/built-in.o
 .text.is_gpt_valid.constprop.1
                0x0000000001110d51      0x25b disk/built-in.o
 .text.intel_scu_ipc_send_command
                0x0000000001110fac        0x9 drivers/built-in.o
                0x0000000001110fac                intel_scu_ipc_send_command
 .text.intel_scu_ipc_check_status
                0x0000000001110fb5       0x57 drivers/built-in.o
                0x0000000001110fb5                intel_scu_ipc_check_status
 .text.intel_scu_ipc_simple_command
                0x000000000111100c       0x13 drivers/built-in.o
                0x000000000111100c                intel_scu_ipc_simple_command
 .text.intel_scu_ipc_raw_cmd
                0x000000000111101f       0x9f drivers/built-in.o
                0x000000000111101f                intel_scu_ipc_raw_cmd
 .text.intel_scu_ipc_command
                0x00000000011110be       0x36 drivers/built-in.o
                0x00000000011110be                intel_scu_ipc_command
 .text.dfu_reset
                0x00000000011110f4        0x6 drivers/built-in.o
                0x00000000011110f4                dfu_reset
 .text.dfu_trigger_reset
                0x00000000011110fa        0x8 drivers/built-in.o
                0x00000000011110fa                dfu_trigger_reset
 .text.dfu_enum_done
                0x0000000001111102        0x6 drivers/built-in.o
                0x0000000001111102                dfu_enum_done
 .text.dfu_trigger_enum_done
                0x0000000001111108        0x8 drivers/built-in.o
                0x0000000001111108                dfu_trigger_enum_done
 .text.dfu_init_env_entities
                0x0000000001111110       0x98 drivers/built-in.o
                0x0000000001111110                dfu_init_env_entities
 .text.dfu_free_buf
                0x00000000011111a8       0x17 drivers/built-in.o
                0x00000000011111a8                dfu_free_buf
 .text.dfu_get_buf_size
                0x00000000011111bf        0x6 drivers/built-in.o
                0x00000000011111bf                dfu_get_buf_size
 .text.dfu_get_buf
                0x00000000011111c5       0x6d drivers/built-in.o
                0x00000000011111c5                dfu_get_buf
 .text.dfu_write_buffer_drain
                0x0000000001111232       0x68 drivers/built-in.o
 .text.dfu_flush
                0x000000000111129a       0x68 drivers/built-in.o
                0x000000000111129a                dfu_flush
 .text.dfu_write
                0x0000000001111302      0x12b drivers/built-in.o
                0x0000000001111302                dfu_write
 .text.dfu_read
                0x000000000111142d      0x230 drivers/built-in.o
                0x000000000111142d                dfu_read
 .text.dfu_free_entities
                0x000000000111165d       0x67 drivers/built-in.o
                0x000000000111165d                dfu_free_entities
 .text.dfu_config_entities
                0x00000000011116c4      0x138 drivers/built-in.o
                0x00000000011116c4                dfu_config_entities
 .text.dfu_get_dev_type
                0x00000000011117fc       0x1c drivers/built-in.o
                0x00000000011117fc                dfu_get_dev_type
 .text.dfu_get_layout
                0x0000000001111818       0x1c drivers/built-in.o
                0x0000000001111818                dfu_get_layout
 .text.dfu_show_entities
                0x0000000001111834       0x5e drivers/built-in.o
                0x0000000001111834                dfu_show_entities
 .text.dfu_get_alt_number
                0x0000000001111892        0x6 drivers/built-in.o
                0x0000000001111892                dfu_get_alt_number
 .text.dfu_get_entity
                0x0000000001111898       0x24 drivers/built-in.o
                0x0000000001111898                dfu_get_entity
 .text.mmc_block_op
                0x00000000011118bc      0x1a2 drivers/built-in.o
 .text.mmc_file_op
                0x0000000001111a5e      0x147 drivers/built-in.o
 .text.dfu_write_medium_mmc
                0x0000000001111ba5       0x9e drivers/built-in.o
                0x0000000001111ba5                dfu_write_medium_mmc
 .text.dfu_flush_medium_mmc
                0x0000000001111c43       0x2e drivers/built-in.o
                0x0000000001111c43                dfu_flush_medium_mmc
 .text.dfu_read_medium_mmc
                0x0000000001111c71       0x79 drivers/built-in.o
                0x0000000001111c71                dfu_read_medium_mmc
 .text.dfu_fill_entity_mmc
                0x0000000001111cea      0x249 drivers/built-in.o
                0x0000000001111cea                dfu_fill_entity_mmc
 .text.mmc_access_part.isra.0
                0x0000000001111f33       0x57 drivers/built-in.o
 .text.dfu_write_medium_ram
                0x0000000001111f8a       0x93 drivers/built-in.o
 .text.dfu_read_medium_ram
                0x000000000111201d       0xa0 drivers/built-in.o
 .text.dfu_fill_entity_ram
                0x00000000011120bd       0xb6 drivers/built-in.o
                0x00000000011120bd                dfu_fill_entity_ram
 .text.board_mmc_getwp
                0x0000000001112173        0x4 drivers/mmc/built-in.o
                0x0000000001112173                board_mmc_getwp
 .text.mmc_getwp
                0x0000000001112177       0x23 drivers/mmc/built-in.o
                0x0000000001112177                mmc_getwp
 .text.__board_mmc_getcd
                0x000000000111219a        0x4 drivers/mmc/built-in.o
                0x000000000111219a                __board_mmc_getcd
                0x000000000111219a                board_mmc_getcd
 .text.mmc_send_cmd
                0x000000000111219e        0xb drivers/mmc/built-in.o
                0x000000000111219e                mmc_send_cmd
 .text.mmc_send_status
                0x00000000011121a9       0xa3 drivers/mmc/built-in.o
                0x00000000011121a9                mmc_send_status
 .text.mmc_set_blocklen
                0x000000000111224c       0x22 drivers/mmc/built-in.o
                0x000000000111224c                mmc_set_blocklen
 .text.find_mmc_device
                0x000000000111226e       0x36 drivers/mmc/built-in.o
                0x000000000111226e                find_mmc_device
 .text.mmc_bread
                0x00000000011122a4      0x146 drivers/mmc/built-in.o
 .text.mmc_go_idle
                0x00000000011123ea       0x48 drivers/mmc/built-in.o
 .text.mmc_send_op_cond_iter
                0x0000000001112432       0x6a drivers/mmc/built-in.o
 .text.mmc_send_op_cond
                0x000000000111249c       0x53 drivers/mmc/built-in.o
                0x000000000111249c                mmc_send_op_cond
 .text.mmc_complete_op_cond
                0x00000000011124ef       0x76 drivers/mmc/built-in.o
                0x00000000011124ef                mmc_complete_op_cond
 .text.mmc_send_ext_csd
                0x0000000001112565       0x44 drivers/mmc/built-in.o
 .text.mmc_set_capacity
                0x00000000011125a9       0x86 drivers/mmc/built-in.o
 .text.mmc_switch_part
                0x000000000111262f       0x40 drivers/mmc/built-in.o
                0x000000000111262f                mmc_switch_part
 .text.mmc_getcd
                0x000000000111266f       0x26 drivers/mmc/built-in.o
                0x000000000111266f                mmc_getcd
 .text.mmc_set_ios
                0x0000000001112695       0x10 drivers/mmc/built-in.o
 .text.mmc_set_clock
                0x00000000011126a5       0x1f drivers/mmc/built-in.o
                0x00000000011126a5                mmc_set_clock
 .text.mmc_startup
                0x00000000011126c4      0xad7 drivers/mmc/built-in.o
 .text.mmc_create
                0x000000000111319b       0xd9 drivers/mmc/built-in.o
                0x000000000111319b                mmc_create
 .text.mmc_get_dev
                0x0000000001113274       0x21 drivers/mmc/built-in.o
                0x0000000001113274                mmc_get_dev
 .text.mmc_start_init
                0x0000000001113295      0x1d2 drivers/mmc/built-in.o
                0x0000000001113295                mmc_start_init
 .text.mmc_init
                0x0000000001113467       0x6a drivers/mmc/built-in.o
                0x0000000001113467                mmc_init
 .text.mmc_set_dsr
                0x00000000011134d1        0x9 drivers/mmc/built-in.o
                0x00000000011134d1                mmc_set_dsr
 .text.__def_mmc_init
                0x00000000011134da        0x4 drivers/mmc/built-in.o
                0x00000000011134da                cpu_mmc_init
 .text.print_mmc_devices
                0x00000000011134de       0x63 drivers/mmc/built-in.o
                0x00000000011134de                print_mmc_devices
 .text.get_mmc_num
                0x0000000001113541        0x6 drivers/mmc/built-in.o
                0x0000000001113541                get_mmc_num
 .text.mmc_initialize
                0x0000000001113547       0x61 drivers/mmc/built-in.o
                0x0000000001113547                mmc_initialize
 .text.mmc_boot_partition_size_change
                0x00000000011135a8       0xa9 drivers/mmc/built-in.o
                0x00000000011135a8                mmc_boot_partition_size_change
 .text.mmc_set_boot_bus_width
                0x0000000001113651       0x1c drivers/mmc/built-in.o
                0x0000000001113651                mmc_set_boot_bus_width
 .text.mmc_set_part_conf
                0x000000000111366d       0x19 drivers/mmc/built-in.o
                0x000000000111366d                mmc_set_part_conf
 .text.mmc_set_rst_n_function
                0x0000000001113686        0xd drivers/mmc/built-in.o
                0x0000000001113686                mmc_set_rst_n_function
 .text.mmc_switch.isra.1
                0x0000000001113693       0x44 drivers/mmc/built-in.o
 .text.sdhci_reset
                0x00000000011136d7       0x59 drivers/mmc/built-in.o
 .text.sdhci_send_command
                0x0000000001113730      0x417 drivers/mmc/built-in.o
                0x0000000001113730                sdhci_send_command
 .text.sdhci_set_ios
                0x0000000001113b47      0x164 drivers/mmc/built-in.o
                0x0000000001113b47                sdhci_set_ios
 .text.sdhci_init
                0x0000000001113cab      0x132 drivers/mmc/built-in.o
                0x0000000001113cab                sdhci_init
 .text.add_sdhci
                0x0000000001113ddd      0x146 drivers/mmc/built-in.o
                0x0000000001113ddd                add_sdhci
 .text.tangier_sdhci_init
                0x0000000001113f23       0x7a drivers/mmc/built-in.o
                0x0000000001113f23                tangier_sdhci_init
 .text.mmc_berase
                0x0000000001113f9d      0x173 drivers/mmc/built-in.o
                0x0000000001113f9d                mmc_berase
 .text.mmc_bwrite
                0x0000000001114110      0x148 drivers/mmc/built-in.o
                0x0000000001114110                mmc_bwrite
 .text.pci_hose_read_config_byte
                0x0000000001114258       0x16 drivers/pci/built-in.o
                0x0000000001114258                pci_hose_read_config_byte
 .text.pci_hose_read_config_word
                0x000000000111426e       0x16 drivers/pci/built-in.o
                0x000000000111426e                pci_hose_read_config_word
 .text.pci_hose_read_config_dword
                0x0000000001114284       0x16 drivers/pci/built-in.o
                0x0000000001114284                pci_hose_read_config_dword
 .text.pci_hose_write_config_byte
                0x000000000111429a       0x17 drivers/pci/built-in.o
                0x000000000111429a                pci_hose_write_config_byte
 .text.pci_hose_write_config_word
                0x00000000011142b1       0x17 drivers/pci/built-in.o
                0x00000000011142b1                pci_hose_write_config_word
 .text.pci_hose_write_config_dword
                0x00000000011142c8       0x16 drivers/pci/built-in.o
                0x00000000011142c8                pci_hose_write_config_dword
 .text.pci_read_config_byte
                0x00000000011142de       0x32 drivers/pci/built-in.o
                0x00000000011142de                pci_read_config_byte
 .text.pci_read_config_word
                0x0000000001114310       0x34 drivers/pci/built-in.o
                0x0000000001114310                pci_read_config_word
 .text.pci_read_config_dword
                0x0000000001114344       0x35 drivers/pci/built-in.o
                0x0000000001114344                pci_read_config_dword
 .text.pci_write_config_byte
                0x0000000001114379       0x3a drivers/pci/built-in.o
                0x0000000001114379                pci_write_config_byte
 .text.pci_write_config_word
                0x00000000011143b3       0x32 drivers/pci/built-in.o
                0x00000000011143b3                pci_write_config_word
 .text.pci_write_config_dword
                0x00000000011143e5       0x2f drivers/pci/built-in.o
                0x00000000011143e5                pci_write_config_dword
 .text.pci_register_hose
                0x0000000001114414       0x1e drivers/pci/built-in.o
                0x0000000001114414                pci_register_hose
 .text.pci_bus_to_hose
                0x0000000001114432       0x2c drivers/pci/built-in.o
                0x0000000001114432                pci_bus_to_hose
 .text.pci_find_config
                0x000000000111445e       0x6a drivers/pci/built-in.o
                0x000000000111445e                pci_find_config
 .text.pci_class_str
                0x00000000011144c8       0xcd drivers/pci/built-in.o
                0x00000000011144c8                pci_class_str
 .text.__pci_skip_dev
                0x0000000001114595        0xf drivers/pci/built-in.o
                0x0000000001114595                __pci_skip_dev
                0x0000000001114595                pci_skip_dev
 .text.pci_hose_scan_bus
                0x00000000011145a4      0x146 drivers/pci/built-in.o
                0x00000000011145a4                pci_hose_scan_bus
 .text.pci_hose_scan
                0x00000000011146ea       0x1c drivers/pci/built-in.o
                0x00000000011146ea                pci_hose_scan
 .text.pci_init
                0x0000000001114706        0xf drivers/pci/built-in.o
                0x0000000001114706                pci_init
 .text.serial_null
                0x0000000001114715        0x1 drivers/serial/built-in.o
                0x0000000001114715                jz_serial_initialize
                0x0000000001114715                bfin_serial_initialize
                0x0000000001114715                p3mx_serial_initialize
                0x0000000001114715                leon2_serial_initialize
                0x0000000001114715                leon3_serial_initialize
                0x0000000001114715                amirix_serial_initialize
                0x0000000001114715                marvell_serial_initialize
                0x0000000001114715                cpci750_serial_initialize
                0x0000000001114715                ns16550_serial_initialize
                0x0000000001114715                asc_serial_initialize
                0x0000000001114715                altera_serial_initialize
                0x0000000001114715                oc_serial_initialize
                0x0000000001114715                sh_serial_initialize
                0x0000000001114715                mxs_auart_initialize
                0x0000000001114715                arm_dcc_initialize
                0x0000000001114715                bmw_serial_initialize
                0x0000000001114715                arc_serial_initialize
                0x0000000001114715                mcf_serial_initialize
                0x0000000001114715                lh7a40x_serial_initialize
                0x0000000001114715                evb64260_serial_initialize
                0x0000000001114715                lpc32xx_serial_initialize
                0x0000000001114715                max3100_serial_initialize
                0x0000000001114715                mpc85xx_serial_initialize
                0x0000000001114715                imx_serial_initialize
                0x0000000001114715                bfin_jtag_initialize
                0x0000000001114715                cogent_serial_initialize
                0x0000000001114715                clps7111_serial_initialize
                0x0000000001114715                ml2_serial_initialize
                0x0000000001114715                sandbox_serial_initialize
                0x0000000001114715                s3c24xx_serial_initialize
                0x0000000001114715                sconsole_serial_initialize
                0x0000000001114715                uartlite_serial_initialize
                0x0000000001114715                au1x00_serial_initialize
                0x0000000001114715                pxa_serial_initialize
                0x0000000001114715                atmel_serial_initialize
                0x0000000001114715                pl01x_serial_initialize
                0x0000000001114715                altera_jtag_serial_initialize
                0x0000000001114715                zynq_serial_initalize
                0x0000000001114715                mpc512x_serial_initialize
                0x0000000001114715                s5p_serial_initialize
                0x0000000001114715                ks8695_serial_initialize
                0x0000000001114715                sa1100_serial_initialize
                0x0000000001114715                mpc8260_scc_serial_initialize
                0x0000000001114715                mxc_serial_initialize
                0x0000000001114715                iop480_serial_initialize
                0x0000000001114715                mpc8xx_serial_initialize
                0x0000000001114715                mpc8260_smc_serial_initialize
                0x0000000001114715                mpc5xx_serial_initialize
 .text.on_baudrate
                0x0000000001114716       0xd3 drivers/serial/built-in.o
 .text.serial_initialize
                0x00000000011147e9       0xfa drivers/serial/built-in.o
                0x00000000011147e9                serial_initialize
 .text.serial_stdio_init
                0x00000000011148e3       0x69 drivers/serial/built-in.o
                0x00000000011148e3                serial_stdio_init
 .text.serial_assign
                0x000000000111494c       0x30 drivers/serial/built-in.o
                0x000000000111494c                serial_assign
 .text.get_current
                0x000000000111497c       0x2d drivers/serial/built-in.o
 .text.serial_init
                0x00000000011149a9        0x9 drivers/serial/built-in.o
                0x00000000011149a9                serial_init
 .text.serial_setbrg
                0x00000000011149b2        0x9 drivers/serial/built-in.o
                0x00000000011149b2                serial_setbrg
 .text.serial_getc
                0x00000000011149bb        0x9 drivers/serial/built-in.o
                0x00000000011149bb                serial_getc
 .text.serial_tstc
                0x00000000011149c4        0x9 drivers/serial/built-in.o
                0x00000000011149c4                serial_tstc
 .text.serial_putc
                0x00000000011149cd       0x12 drivers/serial/built-in.o
                0x00000000011149cd                serial_putc
 .text.serial_puts
                0x00000000011149df       0x11 drivers/serial/built-in.o
                0x00000000011149df                serial_puts
 .text.serial_init_dev
                0x00000000011149f0       0x66 drivers/serial/built-in.o
 .text._serial_getc
                0x0000000001114a56       0x26 drivers/serial/built-in.o
                0x0000000001114a56                _serial_getc
 .text._serial_putc
                0x0000000001114a7c       0x2d drivers/serial/built-in.o
                0x0000000001114a7c                _serial_putc
 .text._serial_puts
                0x0000000001114aa9       0x1a drivers/serial/built-in.o
                0x0000000001114aa9                _serial_puts
 .text.tng_serial0_init
                0x0000000001114ac3        0x7 drivers/serial/built-in.o
                0x0000000001114ac3                tng_serial0_init
 .text.tng_serial0_shutdown
                0x0000000001114aca       0x32 drivers/serial/built-in.o
                0x0000000001114aca                tng_serial0_shutdown
 .text.tng_serial0_setbrg
                0x0000000001114afc        0x1 drivers/serial/built-in.o
                0x0000000001114afc                tng_serial0_setbrg
 .text.tng_serial0_getc
                0x0000000001114afd        0x7 drivers/serial/built-in.o
                0x0000000001114afd                tng_serial0_getc
 .text.tng_serial0_tstc
                0x0000000001114b04        0x9 drivers/serial/built-in.o
                0x0000000001114b04                tng_serial0_tstc
 .text.tng_serial0_putc
                0x0000000001114b0d        0xa drivers/serial/built-in.o
                0x0000000001114b0d                tng_serial0_putc
 .text.tng_serial0_puts
                0x0000000001114b17        0x7 drivers/serial/built-in.o
                0x0000000001114b17                tng_serial0_puts
 .text.tng_serial1_init
                0x0000000001114b1e        0xa drivers/serial/built-in.o
                0x0000000001114b1e                tng_serial1_init
 .text.tng_serial1_shutdown
                0x0000000001114b28       0x32 drivers/serial/built-in.o
                0x0000000001114b28                tng_serial1_shutdown
 .text.tng_serial1_setbrg
                0x0000000001114b5a        0x1 drivers/serial/built-in.o
                0x0000000001114b5a                tng_serial1_setbrg
 .text.tng_serial1_getc
                0x0000000001114b5b        0xa drivers/serial/built-in.o
                0x0000000001114b5b                tng_serial1_getc
 .text.tng_serial1_tstc
                0x0000000001114b65        0x9 drivers/serial/built-in.o
                0x0000000001114b65                tng_serial1_tstc
 .text.tng_serial1_putc
                0x0000000001114b6e        0xd drivers/serial/built-in.o
                0x0000000001114b6e                tng_serial1_putc
 .text.tng_serial1_puts
                0x0000000001114b7b        0xa drivers/serial/built-in.o
                0x0000000001114b7b                tng_serial1_puts
 .text.tng_serial2_init
                0x0000000001114b85        0xa drivers/serial/built-in.o
                0x0000000001114b85                tng_serial2_init
 .text.tng_serial2_shutdown
                0x0000000001114b8f       0x32 drivers/serial/built-in.o
                0x0000000001114b8f                tng_serial2_shutdown
 .text.tng_serial2_setbrg
                0x0000000001114bc1        0x1 drivers/serial/built-in.o
                0x0000000001114bc1                tng_serial2_setbrg
 .text.tng_serial2_getc
                0x0000000001114bc2        0xa drivers/serial/built-in.o
                0x0000000001114bc2                tng_serial2_getc
 .text.tng_serial2_tstc
                0x0000000001114bcc        0x9 drivers/serial/built-in.o
                0x0000000001114bcc                tng_serial2_tstc
 .text.tng_serial2_putc
                0x0000000001114bd5        0xd drivers/serial/built-in.o
                0x0000000001114bd5                tng_serial2_putc
 .text.tng_serial2_puts
                0x0000000001114be2        0xa drivers/serial/built-in.o
                0x0000000001114be2                tng_serial2_puts
 .text.default_serial_console
                0x0000000001114bec        0x6 drivers/serial/built-in.o
                0x0000000001114bec                default_serial_console
 .text.dwc3_set_mode
                0x0000000001114bf2       0x1b drivers/usb/dwc3/built-in.o
                0x0000000001114bf2                dwc3_set_mode
 .text.dwc3_free_event_buffers
                0x0000000001114c0d       0x38 drivers/usb/dwc3/built-in.o
 .text.dwc3_event_buffers_cleanup
                0x0000000001114c45       0x56 drivers/usb/dwc3/built-in.o
 .text.dwc3_probe
                0x0000000001114c9b      0x42f drivers/usb/dwc3/built-in.o
                0x0000000001114c9b                dwc3_probe
 .text.usb_gadget_init_udc
                0x00000000011150ca        0x7 drivers/usb/dwc3/built-in.o
                0x00000000011150ca                usb_gadget_init_udc
 .text.usb_gadget_handle_interrupts
                0x00000000011150d1       0x15 drivers/usb/dwc3/built-in.o
                0x00000000011150d1                usb_gadget_handle_interrupts
 .text.dwc3_ep0_start_trans
                0x00000000011150e6       0xfd drivers/usb/dwc3/built-in.o
 .text.__dwc3_gadget_ep0_queue
                0x00000000011151e3       0xe1 drivers/usb/dwc3/built-in.o
 .text.dwc3_gadget_ep0_queue
                0x00000000011152c4       0x1f drivers/usb/dwc3/built-in.o
                0x00000000011152c4                dwc3_gadget_ep0_queue
 .text.dwc3_ep0_stall_and_restart
                0x00000000011152e3       0x4d drivers/usb/dwc3/built-in.o
 .text.dwc3_ep0_out_start
                0x0000000001115330       0x48 drivers/usb/dwc3/built-in.o
                0x0000000001115330                dwc3_ep0_out_start
 .text.dwc3_ep0_status_cmpl
                0x0000000001115378        0x1 drivers/usb/dwc3/built-in.o
 .text.dwc3_ep0_handle_feature
                0x0000000001115379       0xd0 drivers/usb/dwc3/built-in.o
 .text.dwc3_ep0_delegate_req
                0x0000000001115449        0xf drivers/usb/dwc3/built-in.o
 .text.dwc3_ep0_do_control_status
                0x0000000001115458       0x62 drivers/usb/dwc3/built-in.o
 .text.dwc3_ep0_interrupt
                0x00000000011154ba      0x553 drivers/usb/dwc3/built-in.o
                0x00000000011154ba                dwc3_ep0_interrupt
 .text.dwc3_map_buffer_to_dma
                0x0000000001115a0d       0x16 drivers/usb/dwc3/built-in.o
                0x0000000001115a0d                dwc3_map_buffer_to_dma
 .text.dwc3_unmap_buffer_from_dma
                0x0000000001115a23       0x1c drivers/usb/dwc3/built-in.o
                0x0000000001115a23                dwc3_unmap_buffer_from_dma
 .text.dwc3_gadget_giveback
                0x0000000001115a3f       0x62 drivers/usb/dwc3/built-in.o
                0x0000000001115a3f                dwc3_gadget_giveback
 .text.dwc3_send_gadget_ep_cmd
                0x0000000001115aa1       0x84 drivers/usb/dwc3/built-in.o
                0x0000000001115aa1                dwc3_send_gadget_ep_cmd
 .text.dwc3_remove_requests
                0x0000000001115b25       0x33 drivers/usb/dwc3/built-in.o
 .text.__dwc3_gadget_ep_disable
                0x0000000001115b58       0x51 drivers/usb/dwc3/built-in.o
 .text.dwc3_gadget_ep0_enable
                0x0000000001115ba9        0x6 drivers/usb/dwc3/built-in.o
 .text.dwc3_gadget_ep0_disable
                0x0000000001115baf        0x6 drivers/usb/dwc3/built-in.o
 .text.dwc3_gadget_ep_enable
                0x0000000001115bb5       0xd7 drivers/usb/dwc3/built-in.o
 .text.dwc3_gadget_ep_disable
                0x0000000001115c8c       0xae drivers/usb/dwc3/built-in.o
 .text.dwc3_gadget_ep_alloc_request
                0x0000000001115d3a       0x47 drivers/usb/dwc3/built-in.o
 .text.dwc3_gadget_ep_free_request
                0x0000000001115d81        0x7 drivers/usb/dwc3/built-in.o
 .text.dwc3_prepare_trbs
                0x0000000001115d88      0x1bc drivers/usb/dwc3/built-in.o
 .text.__dwc3_gadget_kick_transfer
                0x0000000001115f44      0x108 drivers/usb/dwc3/built-in.o
 .text.dwc3_gadget_ep_queue
                0x000000000111604c       0x88 drivers/usb/dwc3/built-in.o
 .text.dwc3_gadget_ep_dequeue
                0x00000000011160d4       0x87 drivers/usb/dwc3/built-in.o
 .text.__dwc3_gadget_ep_set_halt
                0x000000000111615b       0xc0 drivers/usb/dwc3/built-in.o
                0x000000000111615b                __dwc3_gadget_ep_set_halt
 .text.dwc3_gadget_ep_set_halt
                0x000000000111621b       0x31 drivers/usb/dwc3/built-in.o
 .text.dwc3_gadget_get_frame
                0x000000000111624c       0x12 drivers/usb/dwc3/built-in.o
 .text.dwc3_gadget_wakeup
                0x000000000111625e       0x92 drivers/usb/dwc3/built-in.o
 .text.dwc3_gadget_set_selfpowered
                0x00000000011162f0       0x13 drivers/usb/dwc3/built-in.o
 .text.dwc3_gadget_pullup
                0x0000000001116303       0x68 drivers/usb/dwc3/built-in.o
 .text.usb_gadget_probe_driver
                0x000000000111636b      0x11c drivers/usb/dwc3/built-in.o
                0x000000000111636b                usb_gadget_probe_driver
 .text.dwc3_disconnect_gadget
                0x0000000001116487       0x19 drivers/usb/dwc3/built-in.o
 .text.dwc3_stop_active_transfer
                0x00000000011164a0       0xae drivers/usb/dwc3/built-in.o
 .text.dwc3_stop_active_transfers
                0x000000000111654e       0x28 drivers/usb/dwc3/built-in.o
 .text.dwc3_gadget_reset_interrupt
                0x0000000001116576      0x143 drivers/usb/dwc3/built-in.o
 .text.dwc3_interrupt
                0x00000000011166b9      0x418 drivers/usb/dwc3/built-in.o
                0x00000000011166b9                dwc3_interrupt
 .text.dwc3_gadget_init
                0x0000000001116ad1      0x24c drivers/usb/dwc3/built-in.o
                0x0000000001116ad1                dwc3_gadget_init
 .text.usb_gadget_register_driver
                0x0000000001116d1d        0x8 drivers/usb/dwc3/built-in.o
                0x0000000001116d1d                usb_gadget_register_driver
 .text.usb_gadget_unregister_driver
                0x0000000001116d25       0x4f drivers/usb/dwc3/built-in.o
                0x0000000001116d25                usb_gadget_unregister_driver
 .text.dwc3_cleanup_done_reqs.isra.19
                0x0000000001116d74      0x16a drivers/usb/dwc3/built-in.o
 .text.dwc3_endpoint_transfer_complete.isra.20
                0x0000000001116ede       0x77 drivers/usb/dwc3/built-in.o
 .text.__dwc3_gadget_ep_enable.constprop.28
                0x0000000001116f55      0x20f drivers/usb/dwc3/built-in.o
 .text.usb_ep_autoconfig_reset
                0x0000000001117164       0x29 drivers/usb/gadget/built-in.o
                0x0000000001117164                usb_ep_autoconfig_reset
 .text.usb_descriptor_fillbuf
                0x000000000111718d       0x43 drivers/usb/gadget/built-in.o
                0x000000000111718d                usb_descriptor_fillbuf
 .text.usb_gadget_get_string
                0x00000000011171d0      0x154 drivers/usb/gadget/built-in.o
                0x00000000011171d0                usb_gadget_get_string
 .text.usb_add_function
                0x0000000001117324       0x90 drivers/usb/gadget/built-in.o
                0x0000000001117324                usb_add_function
 .text.usb_interface_id
                0x00000000011173b4       0x1f drivers/usb/gadget/built-in.o
                0x00000000011173b4                usb_interface_id
 .text.count_configs
                0x00000000011173d3       0x47 drivers/usb/gadget/built-in.o
 .text.usb_add_config
                0x000000000111741a       0x98 drivers/usb/gadget/built-in.o
                0x000000000111741a                usb_add_config
 .text.collect_langs
                0x00000000011174b2       0x37 drivers/usb/gadget/built-in.o
 .text.lookup_string
                0x00000000011174e9       0x31 drivers/usb/gadget/built-in.o
 .text.usb_string_id
                0x000000000111751a       0x16 drivers/usb/gadget/built-in.o
                0x000000000111751a                usb_string_id
 .text.composite_setup_complete
                0x0000000001117530        0x1 drivers/usb/gadget/built-in.o
 .text.composite_setup
                0x0000000001117531      0x675 drivers/usb/gadget/built-in.o
 .text.composite_disconnect
                0x0000000001117ba6       0x24 drivers/usb/gadget/built-in.o
 .text.composite_unbind
                0x0000000001117bca      0x100 drivers/usb/gadget/built-in.o
 .text.composite_bind
                0x0000000001117cca       0xdd drivers/usb/gadget/built-in.o
 .text.composite_suspend
                0x0000000001117da7       0x48 drivers/usb/gadget/built-in.o
 .text.composite_resume
                0x0000000001117def       0x46 drivers/usb/gadget/built-in.o
 .text.usb_composite_register
                0x0000000001117e35       0x39 drivers/usb/gadget/built-in.o
                0x0000000001117e35                usb_composite_register
 .text.usb_composite_unregister
                0x0000000001117e6e       0x1d drivers/usb/gadget/built-in.o
                0x0000000001117e6e                usb_composite_unregister
 .text.g_dnl_unbind
                0x0000000001117e8b       0x29 drivers/usb/gadget/built-in.o
 .text.g_dnl_do_config
                0x0000000001117eb4       0x6a drivers/usb/gadget/built-in.o
 .text.g_dnl_bind_fixup
                0x0000000001117f1e        0x3 drivers/usb/gadget/built-in.o
                0x0000000001117f1e                g_dnl_bind_fixup
 .text.g_dnl_get_board_bcd_device_number
                0x0000000001117f21        0x1 drivers/usb/gadget/built-in.o
                0x0000000001117f21                g_dnl_get_board_bcd_device_number
 .text.g_dnl_bind
                0x0000000001117f22       0xf1 drivers/usb/gadget/built-in.o
 .text.g_dnl_register
                0x0000000001118013       0xa9 drivers/usb/gadget/built-in.o
                0x0000000001118013                g_dnl_register
 .text.g_dnl_unregister
                0x00000000011180bc        0xa drivers/usb/gadget/built-in.o
                0x00000000011180bc                g_dnl_unregister
 .text.reset_config.isra.6
                0x00000000011180c6       0x38 drivers/usb/gadget/built-in.o
 .text.dnload_request_complete
                0x00000000011180fe       0x29 drivers/usb/gadget/built-in.o
 .text.dnload_request_flush
                0x0000000001118127       0x29 drivers/usb/gadget/built-in.o
 .text.handle_getstatus
                0x0000000001118150       0x9b drivers/usb/gadget/built-in.o
 .text.handle_getstate
                0x00000000011181eb       0x12 drivers/usb/gadget/built-in.o
 .text.state_app_idle
                0x00000000011181fd       0x44 drivers/usb/gadget/built-in.o
 .text.state_app_detach
                0x0000000001118241       0x31 drivers/usb/gadget/built-in.o
 .text.state_dfu_idle
                0x0000000001118272       0x9d drivers/usb/gadget/built-in.o
 .text.state_dfu_dnload_sync
                0x000000000111830f       0x31 drivers/usb/gadget/built-in.o
 .text.state_dfu_dnbusy
                0x0000000001118340       0x20 drivers/usb/gadget/built-in.o
 .text.state_dfu_dnload_idle
                0x0000000001118360       0x85 drivers/usb/gadget/built-in.o
 .text.state_dfu_manifest_sync
                0x00000000011183e5       0x4e drivers/usb/gadget/built-in.o
 .text.state_dfu_manifest
                0x0000000001118433       0x4d drivers/usb/gadget/built-in.o
 .text.state_dfu_upload_idle
                0x0000000001118480       0x72 drivers/usb/gadget/built-in.o
 .text.state_dfu_error
                0x00000000011184f2       0x46 drivers/usb/gadget/built-in.o
 .text.dfu_handle
                0x0000000001118538       0xa0 drivers/usb/gadget/built-in.o
 .text.dfu_bind
                0x00000000011185d8      0x161 drivers/usb/gadget/built-in.o
 .text.dfu_unbind
                0x0000000001118739       0x70 drivers/usb/gadget/built-in.o
 .text.dfu_set_alt
                0x00000000011187a9        0x6 drivers/usb/gadget/built-in.o
 .text.dfu_disable
                0x00000000011187af        0xb drivers/usb/gadget/built-in.o
 .text.dfu_add  0x00000000011187ba       0x91 drivers/usb/gadget/built-in.o
                0x00000000011187ba                dfu_add
 .text.handle_upload.isra.3
                0x000000000111884b       0x2b drivers/usb/gadget/built-in.o
 .text.usbd_device_event_irq
                0x0000000001118876       0xb0 drivers/usb/gadget/built-in.o
                0x0000000001118876                usbd_device_event_irq
 .text.fs_probe_unsupported
                0x0000000001118926       0x12 fs/built-in.o
 .text.fs_ls_unsupported
                0x0000000001118938        0x4 fs/built-in.o
 .text.fs_exists_unsupported
                0x000000000111893c        0x3 fs/built-in.o
 .text.fs_read_unsupported
                0x000000000111893f        0x4 fs/built-in.o
 .text.fs_write_unsupported
                0x0000000001118943        0x4 fs/built-in.o
 .text.fs_close_unsupported
                0x0000000001118947        0x1 fs/built-in.o
 .text.fs_get_info
                0x0000000001118948       0x24 fs/built-in.o
 .text.fs_set_blk_dev
                0x000000000111896c       0x70 fs/built-in.o
                0x000000000111896c                fs_set_blk_dev
 .text.fs_close
                0x00000000011189dc       0x18 fs/built-in.o
 .text.fs_ls    0x00000000011189f4       0x2d fs/built-in.o
                0x00000000011189f4                fs_ls
 .text.fs_exists
                0x0000000001118a21       0x23 fs/built-in.o
                0x0000000001118a21                fs_exists
 .text.fs_read  0x0000000001118a44       0x66 fs/built-in.o
                0x0000000001118a44                fs_read
 .text.do_load  0x0000000001118aaa      0x173 fs/built-in.o
                0x0000000001118aaa                do_load
 .text.do_ls    0x0000000001118c1d       0x52 fs/built-in.o
                0x0000000001118c1d                do_ls
 .text.file_exists
                0x0000000001118c6f       0x1c fs/built-in.o
                0x0000000001118c6f                file_exists
 .text.get_fs   0x0000000001118c8b        0x6 fs/built-in.o
                0x0000000001118c8b                get_fs
 .text.ext4fs_free_node
                0x0000000001118c91       0x1a fs/built-in.o
                0x0000000001118c91                ext4fs_free_node
 .text.ext4fs_read_file
                0x0000000001118cab      0x1f6 fs/built-in.o
                0x0000000001118cab                ext4fs_read_file
 .text.ext4fs_ls
                0x0000000001118ea1       0x6c fs/built-in.o
                0x0000000001118ea1                ext4fs_ls
 .text.ext4fs_exists
                0x0000000001118f0d        0xb fs/built-in.o
                0x0000000001118f0d                ext4fs_exists
 .text.ext4fs_read
                0x0000000001118f18       0x2d fs/built-in.o
                0x0000000001118f18                ext4fs_read
 .text.ext4fs_probe
                0x0000000001118f45       0x22 fs/built-in.o
                0x0000000001118f45                ext4fs_probe
 .text.ext4_read_file
                0x0000000001118f67       0x5a fs/built-in.o
                0x0000000001118f67                ext4_read_file
 .text.ext4fs_div_roundup
                0x0000000001118fc1       0x17 fs/built-in.o
                0x0000000001118fc1                ext4fs_div_roundup
 .text.put_ext4
                0x0000000001118fd8      0x171 fs/built-in.o
                0x0000000001118fd8                put_ext4
 .text.ext4fs_set_block_bmap
                0x0000000001119149       0x63 fs/built-in.o
                0x0000000001119149                ext4fs_set_block_bmap
 .text.ext4fs_reset_block_bmap
                0x00000000011191ac       0x5e fs/built-in.o
                0x00000000011191ac                ext4fs_reset_block_bmap
 .text.ext4fs_set_inode_bmap
                0x000000000111920a       0x46 fs/built-in.o
                0x000000000111920a                ext4fs_set_inode_bmap
 .text.ext4fs_reset_inode_bmap
                0x0000000001119250       0x41 fs/built-in.o
                0x0000000001119250                ext4fs_reset_inode_bmap
 .text.ext4fs_checksum_update
                0x0000000001119291       0x57 fs/built-in.o
                0x0000000001119291                ext4fs_checksum_update
 .text.ext4fs_update_parent_dentry
                0x00000000011192e8      0x32f fs/built-in.o
                0x00000000011192e8                ext4fs_update_parent_dentry
 .text.search_dir
                0x0000000001119617      0x102 fs/built-in.o
 .text.ext4fs_iget
                0x0000000001119719       0x19 fs/built-in.o
                0x0000000001119719                ext4fs_iget
 .text.ext4fs_get_parent_inode_num
                0x0000000001119732      0x37d fs/built-in.o
                0x0000000001119732                ext4fs_get_parent_inode_num
 .text.ext4fs_filename_check
                0x0000000001119aaf      0x12d fs/built-in.o
                0x0000000001119aaf                ext4fs_filename_check
 .text.ext4fs_get_new_blk_no
                0x0000000001119bdc      0x2cc fs/built-in.o
                0x0000000001119bdc                ext4fs_get_new_blk_no
 .text.ext4fs_get_new_inode_no
                0x0000000001119ea8      0x2af fs/built-in.o
                0x0000000001119ea8                ext4fs_get_new_inode_no
 .text.ext4fs_allocate_blocks
                0x000000000111a157      0x56c fs/built-in.o
                0x000000000111a157                ext4fs_allocate_blocks
 .text.ext4fs_read_inode
                0x000000000111a6c3       0xe0 fs/built-in.o
                0x000000000111a6c3                ext4fs_read_inode
 .text.read_allocated_block
                0x000000000111a7a3      0x789 fs/built-in.o
                0x000000000111a7a3                read_allocated_block
 .text.ext4fs_close
                0x000000000111af2c       0xc5 fs/built-in.o
                0x000000000111af2c                ext4fs_close
 .text.ext4fs_iterate_dir
                0x000000000111aff1      0x224 fs/built-in.o
                0x000000000111aff1                ext4fs_iterate_dir
 .text.ext4fs_find_file1
                0x000000000111b215      0x203 fs/built-in.o
 .text.ext4fs_find_file
                0x000000000111b418       0x5b fs/built-in.o
                0x000000000111b418                ext4fs_find_file
 .text.ext4fs_open
                0x000000000111b473       0x84 fs/built-in.o
                0x000000000111b473                ext4fs_open
 .text.ext4fs_mount
                0x000000000111b4f7       0xbe fs/built-in.o
                0x000000000111b4f7                ext4fs_mount
 .text.ext4fs_set_blk_dev
                0x000000000111b5b5       0x62 fs/built-in.o
                0x000000000111b5b5                ext4fs_set_blk_dev
 .text.ext4fs_devread
                0x000000000111b617      0x1e1 fs/built-in.o
                0x000000000111b617                ext4fs_devread
 .text.ext4_read_superblock
                0x000000000111b7f8       0x31 fs/built-in.o
                0x000000000111b7f8                ext4_read_superblock
 .text.ext4fs_update
                0x000000000111b829       0xd5 fs/built-in.o
 .text.ext4fs_get_bgdtable
                0x000000000111b8fe       0x95 fs/built-in.o
                0x000000000111b8fe                ext4fs_get_bgdtable
 .text.ext4fs_init
                0x000000000111b993      0x245 fs/built-in.o
                0x000000000111b993                ext4fs_init
 .text.ext4fs_deinit
                0x000000000111bbd8      0x161 fs/built-in.o
                0x000000000111bbd8                ext4fs_deinit
 .text.ext4fs_write
                0x000000000111bd39      0xf71 fs/built-in.o
                0x000000000111bd39                ext4fs_write
 .text.ext4fs_init_journal
                0x000000000111ccaa      0x23e fs/built-in.o
                0x000000000111ccaa                ext4fs_init_journal
 .text.ext4fs_dump_metadata
                0x000000000111cee8       0x42 fs/built-in.o
                0x000000000111cee8                ext4fs_dump_metadata
 .text.ext4fs_free_journal
                0x000000000111cf2a       0x8d fs/built-in.o
                0x000000000111cf2a                ext4fs_free_journal
 .text.ext4fs_log_gdt
                0x000000000111cfb7       0xa4 fs/built-in.o
                0x000000000111cfb7                ext4fs_log_gdt
 .text.ext4fs_log_journal
                0x000000000111d05b       0xd1 fs/built-in.o
                0x000000000111d05b                ext4fs_log_journal
 .text.ext4fs_put_metadata
                0x000000000111d12c       0xab fs/built-in.o
                0x000000000111d12c                ext4fs_put_metadata
 .text.ext4fs_push_revoke_blk
                0x000000000111d1d7       0xc5 fs/built-in.o
                0x000000000111d1d7                ext4fs_push_revoke_blk
 .text.ext4fs_free_revoke_blks
                0x000000000111d29c       0x50 fs/built-in.o
                0x000000000111d29c                ext4fs_free_revoke_blks
 .text.check_blknr_for_revoke
                0x000000000111d2ec       0x61 fs/built-in.o
                0x000000000111d2ec                check_blknr_for_revoke
 .text.recover_transaction
                0x000000000111d34d      0x141 fs/built-in.o
                0x000000000111d34d                recover_transaction
 .text.print_jrnl_status
                0x000000000111d48e       0x1b fs/built-in.o
                0x000000000111d48e                print_jrnl_status
 .text.ext4fs_check_journal_state
                0x000000000111d4a9      0x2f6 fs/built-in.o
                0x000000000111d4a9                ext4fs_check_journal_state
 .text.ext4fs_update_journal
                0x000000000111d79f      0x2f2 fs/built-in.o
                0x000000000111d79f                ext4fs_update_journal
 .text.ext2fs_crc16
                0x000000000111da91       0x1f fs/built-in.o
                0x000000000111da91                ext2fs_crc16
 .text.downcase
                0x000000000111dab0       0x1b fs/built-in.o
 .text.disk_read
                0x000000000111dacb       0x33 fs/built-in.o
 .text.fat_set_blk_dev
                0x000000000111dafe      0x126 fs/built-in.o
                0x000000000111dafe                fat_set_blk_dev
 .text.dirdelim
                0x000000000111dc24       0x1e fs/built-in.o
 .text.get_name
                0x000000000111dc42       0x6b fs/built-in.o
 .text.get_fatent
                0x000000000111dcad      0x10c fs/built-in.o
 .text.get_cluster
                0x000000000111ddb9      0x122 fs/built-in.o
 .text.slot2str
                0x000000000111dedb       0x6d fs/built-in.o
 .text.get_vfatname
                0x000000000111df48      0x165 fs/built-in.o
 .text.mkcksum  0x000000000111e0ad       0x23 fs/built-in.o
 .text.read_bootsectandvi
                0x000000000111e0d0       0xe8 fs/built-in.o
 .text.do_fat_read_at
                0x000000000111e1b8      0xa79 fs/built-in.o
                0x000000000111e1b8                do_fat_read_at
 .text.do_fat_read
                0x000000000111ec31       0x25 fs/built-in.o
                0x000000000111ec31                do_fat_read
 .text.file_fat_detectfs
                0x000000000111ec56      0x10f fs/built-in.o
                0x000000000111ec56                file_fat_detectfs
 .text.file_fat_ls
                0x000000000111ed65       0x13 fs/built-in.o
                0x000000000111ed65                file_fat_ls
 .text.fat_exists
                0x000000000111ed78       0x2c fs/built-in.o
                0x000000000111ed78                fat_exists
 .text.file_fat_read_at
                0x000000000111eda4       0x49 fs/built-in.o
                0x000000000111eda4                file_fat_read_at
 .text.file_fat_read
                0x000000000111eded       0x11 fs/built-in.o
                0x000000000111eded                file_fat_read
 .text.fat_read_file
                0x000000000111edfe       0x3a fs/built-in.o
                0x000000000111edfe                fat_read_file
 .text.fat_close
                0x000000000111ee38        0x1 fs/built-in.o
                0x000000000111ee38                fat_close
 .text.disk_write
                0x000000000111ee39       0x51 fs/built-in.o
 .text.set_name
                0x000000000111ee8a       0xf2 fs/built-in.o
 .text.flush_fat_buffer
                0x000000000111ef7c       0x56 fs/built-in.o
 .text.get_fatent_value
                0x000000000111efd2      0x134 fs/built-in.o
 .text.set_fatent_value
                0x000000000111f106       0xc7 fs/built-in.o
 .text.set_cluster
                0x000000000111f1cd       0x95 fs/built-in.o
 .text.set_contents
                0x000000000111f262      0x196 fs/built-in.o
 .text.check_overflow
                0x000000000111f3f8       0x3f fs/built-in.o
 .text.do_fat_write
                0x000000000111f437      0x89f fs/built-in.o
 .text.file_fat_write
                0x000000000111fcd6       0x31 fs/built-in.o
                0x000000000111fcd6                file_fat_write
 .text.flush_dir_table.constprop.7
                0x000000000111fd07       0xb1 fs/built-in.o
 .text.inflate_fast
                0x000000000111fdb8      0x53d lib/built-in.o
                0x000000000111fdb8                inflate_fast
 .text.inflate_table
                0x00000000011202f5      0x499 lib/built-in.o
                0x00000000011202f5                inflate_table
 .text.inflateReset
                0x000000000112078e       0x94 lib/built-in.o
                0x000000000112078e                inflateReset
 .text.inflateInit2_
                0x0000000001120822       0xcf lib/built-in.o
                0x0000000001120822                inflateInit2_
 .text.inflate  0x00000000011208f1     0x139f lib/built-in.o
                0x00000000011208f1                inflate
 .text.inflateEnd
                0x0000000001121c90       0x49 lib/built-in.o
                0x0000000001121c90                inflateEnd
 .text.zcalloc  0x0000000001121cd9        0xa lib/built-in.o
                0x0000000001121cd9                zcalloc
 .text.zcfree   0x0000000001121ce3        0x7 lib/built-in.o
                0x0000000001121ce3                zcfree
 .text.adler32  0x0000000001121cea      0x29e lib/built-in.o
                0x0000000001121cea                adler32
 .text.cyg_crc16
                0x0000000001121f88       0x28 lib/built-in.o
                0x0000000001121f88                cyg_crc16
 .text.gzalloc  0x0000000001121fb0        0xe lib/built-in.o
                0x0000000001121fb0                gzalloc
 .text.gzfree   0x0000000001121fbe        0x7 lib/built-in.o
                0x0000000001121fbe                gzfree
 .text.gunzip   0x0000000001121fc5       0x97 lib/built-in.o
                0x0000000001121fc5                gunzip
 .text.zunzip   0x000000000112205c       0xdd lib/built-in.o
                0x000000000112205c                zunzip
 .text.initcall_run_list
                0x0000000001122139       0x19 lib/built-in.o
                0x0000000001122139                initcall_run_list
 .text.ldiv     0x0000000001122152       0x20 lib/built-in.o
                0x0000000001122152                ldiv
 .text.byteReverse
                0x0000000001122172       0x2b lib/built-in.o
 .text.MD5Update
                0x000000000112219d       0xcc lib/built-in.o
 .text.MD5Final
                0x0000000001122269       0xab lib/built-in.o
 .text.MD5Transform
                0x0000000001122314      0x6df lib/built-in.o
 .text.md5      0x00000000011229f3       0x4e lib/built-in.o
                0x00000000011229f3                md5
 .text.qsort    0x0000000001122a41       0xb8 lib/built-in.o
                0x0000000001122a41                qsort
 .text.strcmp_compar
                0x0000000001122af9        0x9 lib/built-in.o
                0x0000000001122af9                strcmp_compar
 .text.sha1_starts
                0x0000000001122b02       0x31 lib/built-in.o
                0x0000000001122b02                sha1_starts
 .text.sha1_process
                0x0000000001122b33     0x1469 lib/built-in.o
 .text.sha1_update
                0x0000000001123f9c        0xa lib/built-in.o
                0x0000000001123f9c                sha1_update
 .text.sha1_finish
                0x0000000001123fa6      0x12c lib/built-in.o
                0x0000000001123fa6                sha1_finish
 .text.sha1_csum_wd
                0x00000000011240d2       0x5d lib/built-in.o
                0x00000000011240d2                sha1_csum_wd
 .text.sha1_update.part.0
                0x000000000112412f       0x98 lib/built-in.o
 .text.strmhz   0x00000000011241c7       0x68 lib/built-in.o
                0x00000000011241c7                strmhz
 .text.hcreate_r
                0x000000000112422f       0x73 lib/built-in.o
                0x000000000112422f                hcreate_r
 .text.hdestroy_r
                0x00000000011242a2       0x4d lib/built-in.o
                0x00000000011242a2                hdestroy_r
 .text.hmatch_r
                0x00000000011242ef       0x6b lib/built-in.o
                0x00000000011242ef                hmatch_r
 .text.hsearch_r
                0x000000000112435a      0x369 lib/built-in.o
                0x000000000112435a                hsearch_r
 .text.hdelete_r
                0x00000000011246c3       0xc2 lib/built-in.o
                0x00000000011246c3                hdelete_r
 .text.cmpkey   0x0000000001124785        0xd lib/built-in.o
 .text.hexport_r
                0x0000000001124792      0x218 lib/built-in.o
                0x0000000001124792                hexport_r
 .text.himport_r
                0x00000000011249aa      0x288 lib/built-in.o
                0x00000000011249aa                himport_r
 .text.hwalk_r  0x0000000001124c32       0x2d lib/built-in.o
                0x0000000001124c32                hwalk_r
 .text._hdelete.isra.1
                0x0000000001124c5f       0x38 lib/built-in.o
 .text.drop_var_from_set.part.2
                0x0000000001124c97       0x40 lib/built-in.o
 .text.match_string.isra.3
                0x0000000001124cd7       0x4f lib/built-in.o
 .text.display_options
                0x0000000001124d26       0x1d lib/built-in.o
                0x0000000001124d26                display_options
 .text.print_size
                0x0000000001124d43      0x115 lib/built-in.o
                0x0000000001124d43                print_size
 .text.print_buffer
                0x0000000001124e58      0x157 lib/built-in.o
                0x0000000001124e58                print_buffer
 .text.crc32_no_comp
                0x0000000001124faf       0x98 lib/built-in.o
                0x0000000001124faf                crc32_no_comp
 .text.crc32    0x0000000001125047        0xa lib/built-in.o
                0x0000000001125047                crc32
 .text.crc32_wd
                0x0000000001125051       0x38 lib/built-in.o
                0x0000000001125051                crc32_wd
 .text.crc32_wd_buf
                0x0000000001125089       0x38 lib/built-in.o
                0x0000000001125089                crc32_wd_buf
 .text.__div64_32
                0x00000000011250c1       0xd4 lib/built-in.o
                0x00000000011250c1                __div64_32
 .text.hang     0x0000000001125195       0x16 lib/built-in.o
                0x0000000001125195                hang
 .text.skip_spaces
                0x00000000011251ab       0x10 lib/built-in.o
                0x00000000011251ab                skip_spaces
 .text.strim    0x00000000011251bb       0x32 lib/built-in.o
                0x00000000011251bb                strim
 .text.strcpy   0x00000000011251ed       0x10 lib/built-in.o
                0x00000000011251ed                strcpy
 .text.strncpy  0x00000000011251fd       0x18 lib/built-in.o
                0x00000000011251fd                strncpy
 .text.strcat   0x0000000001125215       0x1e lib/built-in.o
                0x0000000001125215                strcat
 .text.strncat  0x0000000001125233       0x32 lib/built-in.o
                0x0000000001125233                strncat
 .text.strcmp   0x0000000001125265       0x1b lib/built-in.o
                0x0000000001125265                strcmp
 .text.strncmp  0x0000000001125280       0x2e lib/built-in.o
                0x0000000001125280                strncmp
 .text.strchr   0x00000000011252ae       0x11 lib/built-in.o
                0x00000000011252ae                strchr
 .text.strlen   0x00000000011252bf        0xf lib/built-in.o
                0x00000000011252bf                strlen
 .text.strnlen  0x00000000011252ce       0x15 lib/built-in.o
                0x00000000011252ce                strnlen
 .text.strdup   0x00000000011252e3       0x29 lib/built-in.o
                0x00000000011252e3                strdup
 .text.strspn   0x000000000112530c       0x28 lib/built-in.o
                0x000000000112530c                strspn
 .text.strpbrk  0x0000000001125334       0x21 lib/built-in.o
                0x0000000001125334                strpbrk
 .text.strtok   0x0000000001125355       0x54 lib/built-in.o
                0x0000000001125355                strtok
 .text.strsep   0x00000000011253a9       0x24 lib/built-in.o
                0x00000000011253a9                strsep
 .text.memmove  0x00000000011253cd       0x40 lib/built-in.o
                0x00000000011253cd                memmove
 .text.memcmp   0x000000000112540d       0x20 lib/built-in.o
                0x000000000112540d                memcmp
 .text.strstr   0x000000000112542d       0x4a lib/built-in.o
                0x000000000112542d                strstr
 .text.memchr   0x0000000001125477       0x16 lib/built-in.o
                0x0000000001125477                memchr
 .text.udelay   0x000000000112548d       0x26 lib/built-in.o
                0x000000000112548d                udelay
 .text.mdelay   0x00000000011254b3       0x16 lib/built-in.o
                0x00000000011254b3                mdelay
 .text.uuid_str_valid
                0x00000000011254c9       0x67 lib/built-in.o
                0x00000000011254c9                uuid_str_valid
 .text.uuid_str_to_bin
                0x0000000001125530      0x150 lib/built-in.o
                0x0000000001125530                uuid_str_to_bin
 .text.uuid_bin_to_str
                0x0000000001125680       0x87 lib/built-in.o
                0x0000000001125680                uuid_bin_to_str
 .text.gen_rand_uuid
                0x0000000001125707       0x56 lib/built-in.o
                0x0000000001125707                gen_rand_uuid
 .text.gen_rand_uuid_str
                0x000000000112575d       0x21 lib/built-in.o
                0x000000000112575d                gen_rand_uuid_str
 .text.simple_strtoul
                0x000000000112577e       0x90 lib/built-in.o
                0x000000000112577e                simple_strtoul
 .text.strict_strtoul
                0x000000000112580e       0x51 lib/built-in.o
                0x000000000112580e                strict_strtoul
 .text.simple_strtol
                0x000000000112585f       0x13 lib/built-in.o
                0x000000000112585f                simple_strtol
 .text.ustrtoull
                0x0000000001125872       0x59 lib/built-in.o
                0x0000000001125872                ustrtoull
 .text.simple_strtoull
                0x00000000011258cb       0xeb lib/built-in.o
                0x00000000011258cb                simple_strtoull
 .text.put_dec  0x00000000011259b6      0x1a9 lib/built-in.o
 .text.vsprintf
                0x0000000001125b5f        0x5 lib/built-in.o
                0x0000000001125b5f                vsprintf
 .text.sprintf  0x0000000001125b64       0x12 lib/built-in.o
                0x0000000001125b64                sprintf
 .text.panic    0x0000000001125b76       0x36 lib/built-in.o
                0x0000000001125b76                panic
 .text.number.isra.1
                0x0000000001125bac      0x20c lib/built-in.o
 .text.vsnprintf_internal.isra.3
                0x0000000001125db8      0x3ac lib/built-in.o
 .text.rand_r   0x0000000001126164       0x1c lib/built-in.o
                0x0000000001126164                rand_r
 .text.rand     0x0000000001126180        0xa lib/built-in.o
                0x0000000001126180                rand
 .text          0x000000000112618a      0x111 arch/x86/lib/libgcc.a(_udivdi3.o)
                0x000000000112618a                __normal___udivdi3
                0x000000000112629c                . = ALIGN (0x4)
                0x000000000112629c                . = ALIGN (0x4)

.u_boot_list    0x000000000112629c      0x824
 *(SORT(.u_boot_list*))
 .u_boot_list_2_cmd_1
                0x000000000112629c        0x0 common/built-in.o
 .u_boot_list_2_cmd_2_askenv
                0x000000000112629c       0x1c common/built-in.o
                0x000000000112629c                _u_boot_list_2_cmd_2_askenv
 .u_boot_list_2_cmd_2_base
                0x00000000011262b8       0x1c common/built-in.o
                0x00000000011262b8                _u_boot_list_2_cmd_2_base
 .u_boot_list_2_cmd_2_bdinfo
                0x00000000011262d4       0x1c common/built-in.o
                0x00000000011262d4                _u_boot_list_2_cmd_2_bdinfo
 .u_boot_list_2_cmd_2_boot
                0x00000000011262f0       0x1c common/built-in.o
                0x00000000011262f0                _u_boot_list_2_cmd_2_boot
 .u_boot_list_2_cmd_2_bootd
                0x000000000112630c       0x1c common/built-in.o
                0x000000000112630c                _u_boot_list_2_cmd_2_bootd
 .u_boot_list_2_cmd_2_bootelf
                0x0000000001126328       0x1c common/built-in.o
                0x0000000001126328                _u_boot_list_2_cmd_2_bootelf
 .u_boot_list_2_cmd_2_bootm
                0x0000000001126344       0x1c common/built-in.o
                0x0000000001126344                _u_boot_list_2_cmd_2_bootm
 .u_boot_list_2_cmd_2_bootvx
                0x0000000001126360       0x1c common/built-in.o
                0x0000000001126360                _u_boot_list_2_cmd_2_bootvx
 .u_boot_list_2_cmd_2_cmp
                0x000000000112637c       0x1c common/built-in.o
                0x000000000112637c                _u_boot_list_2_cmd_2_cmp
 .u_boot_list_2_cmd_2_coninfo
                0x0000000001126398       0x1c common/built-in.o
                0x0000000001126398                _u_boot_list_2_cmd_2_coninfo
 .u_boot_list_2_cmd_2_cp
                0x00000000011263b4       0x1c common/built-in.o
                0x00000000011263b4                _u_boot_list_2_cmd_2_cp
 .u_boot_list_2_cmd_2_crc32
                0x00000000011263d0       0x1c common/built-in.o
                0x00000000011263d0                _u_boot_list_2_cmd_2_crc32
 .u_boot_list_2_cmd_2_dcache
                0x00000000011263ec       0x1c common/built-in.o
                0x00000000011263ec                _u_boot_list_2_cmd_2_dcache
 .u_boot_list_2_cmd_2_dfu
                0x0000000001126408       0x1c common/built-in.o
                0x0000000001126408                _u_boot_list_2_cmd_2_dfu
 .u_boot_list_2_cmd_2_echo
                0x0000000001126424       0x1c common/built-in.o
                0x0000000001126424                _u_boot_list_2_cmd_2_echo
 .u_boot_list_2_cmd_2_editenv
                0x0000000001126440       0x1c common/built-in.o
                0x0000000001126440                _u_boot_list_2_cmd_2_editenv
 .u_boot_list_2_cmd_2_env
                0x000000000112645c       0x1c common/built-in.o
                0x000000000112645c                _u_boot_list_2_cmd_2_env
 .u_boot_list_2_cmd_2_exit
                0x0000000001126478       0x1c common/built-in.o
                0x0000000001126478                _u_boot_list_2_cmd_2_exit
 .u_boot_list_2_cmd_2_ext4load
                0x0000000001126494       0x1c common/built-in.o
                0x0000000001126494                _u_boot_list_2_cmd_2_ext4load
 .u_boot_list_2_cmd_2_ext4ls
                0x00000000011264b0       0x1c common/built-in.o
                0x00000000011264b0                _u_boot_list_2_cmd_2_ext4ls
 .u_boot_list_2_cmd_2_ext4write
                0x00000000011264cc       0x1c common/built-in.o
                0x00000000011264cc                _u_boot_list_2_cmd_2_ext4write
 .u_boot_list_2_cmd_2_false
                0x00000000011264e8       0x1c common/built-in.o
                0x00000000011264e8                _u_boot_list_2_cmd_2_false
 .u_boot_list_2_cmd_2_fatinfo
                0x0000000001126504       0x1c common/built-in.o
                0x0000000001126504                _u_boot_list_2_cmd_2_fatinfo
 .u_boot_list_2_cmd_2_fatload
                0x0000000001126520       0x1c common/built-in.o
                0x0000000001126520                _u_boot_list_2_cmd_2_fatload
 .u_boot_list_2_cmd_2_fatls
                0x000000000112653c       0x1c common/built-in.o
                0x000000000112653c                _u_boot_list_2_cmd_2_fatls
 .u_boot_list_2_cmd_2_fatwrite
                0x0000000001126558       0x1c common/built-in.o
                0x0000000001126558                _u_boot_list_2_cmd_2_fatwrite
 .u_boot_list_2_cmd_2_gettime
                0x0000000001126574       0x1c common/built-in.o
                0x0000000001126574                _u_boot_list_2_cmd_2_gettime
 .u_boot_list_2_cmd_2_go
                0x0000000001126590       0x1c common/built-in.o
                0x0000000001126590                _u_boot_list_2_cmd_2_go
 .u_boot_list_2_cmd_2_gpt
                0x00000000011265ac       0x1c common/built-in.o
                0x00000000011265ac                _u_boot_list_2_cmd_2_gpt
 .u_boot_list_2_cmd_2_grepenv
                0x00000000011265c8       0x1c common/built-in.o
                0x00000000011265c8                _u_boot_list_2_cmd_2_grepenv
 .u_boot_list_2_cmd_2_hash
                0x00000000011265e4       0x1c common/built-in.o
                0x00000000011265e4                _u_boot_list_2_cmd_2_hash
 .u_boot_list_2_cmd_2_help
                0x0000000001126600       0x1c common/built-in.o
                0x0000000001126600                _u_boot_list_2_cmd_2_help
 .u_boot_list_2_cmd_2_icache
                0x000000000112661c       0x1c common/built-in.o
                0x000000000112661c                _u_boot_list_2_cmd_2_icache
 .u_boot_list_2_cmd_2_in
                0x0000000001126638       0x1c common/built-in.o
                0x0000000001126638                _u_boot_list_2_cmd_2_in
 .u_boot_list_2_cmd_2_ini
                0x0000000001126654       0x1c common/built-in.o
                0x0000000001126654                _u_boot_list_2_cmd_2_ini
 .u_boot_list_2_cmd_2_interrupts
                0x0000000001126670       0x1c common/built-in.o
                0x0000000001126670                _u_boot_list_2_cmd_2_interrupts
 .u_boot_list_2_cmd_2_irqinfo
                0x000000000112668c       0x1c common/built-in.o
                0x000000000112668c                _u_boot_list_2_cmd_2_irqinfo
 .u_boot_list_2_cmd_2_itest
                0x00000000011266a8       0x1c common/built-in.o
                0x00000000011266a8                _u_boot_list_2_cmd_2_itest
 .u_boot_list_2_cmd_2_load
                0x00000000011266c4       0x1c common/built-in.o
                0x00000000011266c4                _u_boot_list_2_cmd_2_load
 .u_boot_list_2_cmd_2_loadb
                0x00000000011266e0       0x1c common/built-in.o
                0x00000000011266e0                _u_boot_list_2_cmd_2_loadb
 .u_boot_list_2_cmd_2_loads
                0x00000000011266fc       0x1c common/built-in.o
                0x00000000011266fc                _u_boot_list_2_cmd_2_loads
 .u_boot_list_2_cmd_2_loadx
                0x0000000001126718       0x1c common/built-in.o
                0x0000000001126718                _u_boot_list_2_cmd_2_loadx
 .u_boot_list_2_cmd_2_loady
                0x0000000001126734       0x1c common/built-in.o
                0x0000000001126734                _u_boot_list_2_cmd_2_loady
 .u_boot_list_2_cmd_2_loop
                0x0000000001126750       0x1c common/built-in.o
                0x0000000001126750                _u_boot_list_2_cmd_2_loop
 .u_boot_list_2_cmd_2_ls
                0x000000000112676c       0x1c common/built-in.o
                0x000000000112676c                _u_boot_list_2_cmd_2_ls
 .u_boot_list_2_cmd_2_md
                0x0000000001126788       0x1c common/built-in.o
                0x0000000001126788                _u_boot_list_2_cmd_2_md
 .u_boot_list_2_cmd_2_meminfo
                0x00000000011267a4       0x1c common/built-in.o
                0x00000000011267a4                _u_boot_list_2_cmd_2_meminfo
 .u_boot_list_2_cmd_2_mm
                0x00000000011267c0       0x1c common/built-in.o
                0x00000000011267c0                _u_boot_list_2_cmd_2_mm
 .u_boot_list_2_cmd_2_mmc
                0x00000000011267dc       0x1c common/built-in.o
                0x00000000011267dc                _u_boot_list_2_cmd_2_mmc
 .u_boot_list_2_cmd_2_mmcinfo
                0x00000000011267f8       0x1c common/built-in.o
                0x00000000011267f8                _u_boot_list_2_cmd_2_mmcinfo
 .u_boot_list_2_cmd_2_mw
                0x0000000001126814       0x1c common/built-in.o
                0x0000000001126814                _u_boot_list_2_cmd_2_mw
 .u_boot_list_2_cmd_2_nm
                0x0000000001126830       0x1c common/built-in.o
                0x0000000001126830                _u_boot_list_2_cmd_2_nm
 .u_boot_list_2_cmd_2_out
                0x000000000112684c       0x1c common/built-in.o
                0x000000000112684c                _u_boot_list_2_cmd_2_out
 .u_boot_list_2_cmd_2_part
                0x0000000001126868       0x1c common/built-in.o
                0x0000000001126868                _u_boot_list_2_cmd_2_part
 .u_boot_list_2_cmd_2_pci
                0x0000000001126884       0x1c common/built-in.o
                0x0000000001126884                _u_boot_list_2_cmd_2_pci
 .u_boot_list_2_cmd_2_printenv
                0x00000000011268a0       0x1c common/built-in.o
                0x00000000011268a0                _u_boot_list_2_cmd_2_printenv
 .u_boot_list_2_cmd_2_question_mark
                0x00000000011268bc       0x1c common/built-in.o
                0x00000000011268bc                _u_boot_list_2_cmd_2_question_mark
 .u_boot_list_2_cmd_2_read
                0x00000000011268d8       0x1c common/built-in.o
                0x00000000011268d8                _u_boot_list_2_cmd_2_read
 .u_boot_list_2_cmd_2_reginfo
                0x00000000011268f4       0x1c common/built-in.o
                0x00000000011268f4                _u_boot_list_2_cmd_2_reginfo
 .u_boot_list_2_cmd_2_reset
                0x0000000001126910       0x1c common/built-in.o
                0x0000000001126910                _u_boot_list_2_cmd_2_reset
 .u_boot_list_2_cmd_2_run
                0x000000000112692c       0x1c common/built-in.o
                0x000000000112692c                _u_boot_list_2_cmd_2_run
 .u_boot_list_2_cmd_2_saveenv
                0x0000000001126948       0x1c common/built-in.o
                0x0000000001126948                _u_boot_list_2_cmd_2_saveenv
 .u_boot_list_2_cmd_2_setenv
                0x0000000001126964       0x1c common/built-in.o
                0x0000000001126964                _u_boot_list_2_cmd_2_setenv
 .u_boot_list_2_cmd_2_setexpr
                0x0000000001126980       0x1c common/built-in.o
                0x0000000001126980                _u_boot_list_2_cmd_2_setexpr
 .u_boot_list_2_cmd_2_sha1sum
                0x000000000112699c       0x1c common/built-in.o
                0x000000000112699c                _u_boot_list_2_cmd_2_sha1sum
 .u_boot_list_2_cmd_2_showvar
                0x00000000011269b8       0x1c common/built-in.o
                0x00000000011269b8                _u_boot_list_2_cmd_2_showvar
 .u_boot_list_2_cmd_2_sleep
                0x00000000011269d4       0x1c common/built-in.o
                0x00000000011269d4                _u_boot_list_2_cmd_2_sleep
 .u_boot_list_2_cmd_2_source
                0x00000000011269f0       0x1c common/built-in.o
                0x00000000011269f0                _u_boot_list_2_cmd_2_source
 .u_boot_list_2_cmd_2_test
                0x0000000001126a0c       0x1c common/built-in.o
                0x0000000001126a0c                _u_boot_list_2_cmd_2_test
 .u_boot_list_2_cmd_2_timer
                0x0000000001126a28       0x1c common/built-in.o
                0x0000000001126a28                _u_boot_list_2_cmd_2_timer
 .u_boot_list_2_cmd_2_true
                0x0000000001126a44       0x1c common/built-in.o
                0x0000000001126a44                _u_boot_list_2_cmd_2_true
 .u_boot_list_2_cmd_2_version
                0x0000000001126a60       0x1c common/built-in.o
                0x0000000001126a60                _u_boot_list_2_cmd_2_version
 .u_boot_list_2_cmd_2_zboot
                0x0000000001126a7c       0x1c arch/x86/lib/built-in.o
                0x0000000001126a7c                _u_boot_list_2_cmd_2_zboot
 .u_boot_list_2_cmd_3
                0x0000000001126a98        0x0 common/built-in.o
 .u_boot_list_2_env_clbk_1
                0x0000000001126a98        0x0 common/built-in.o
 .u_boot_list_2_env_clbk_2_baudrate
                0x0000000001126a98        0x8 drivers/serial/built-in.o
                0x0000000001126a98                _u_boot_list_2_env_clbk_2_baudrate
 .u_boot_list_2_env_clbk_2_callbacks
                0x0000000001126aa0        0x8 common/built-in.o
                0x0000000001126aa0                _u_boot_list_2_env_clbk_2_callbacks
 .u_boot_list_2_env_clbk_2_console
                0x0000000001126aa8        0x8 common/built-in.o
                0x0000000001126aa8                _u_boot_list_2_env_clbk_2_console
 .u_boot_list_2_env_clbk_2_flags
                0x0000000001126ab0        0x8 common/built-in.o
                0x0000000001126ab0                _u_boot_list_2_env_clbk_2_flags
 .u_boot_list_2_env_clbk_2_loadaddr
                0x0000000001126ab8        0x8 common/built-in.o
                0x0000000001126ab8                _u_boot_list_2_env_clbk_2_loadaddr
 .u_boot_list_2_env_clbk_3
                0x0000000001126ac0        0x0 common/built-in.o
                0x0000000001126ac0                . = ALIGN (0x4)

.rodata         0x0000000001126ac0     0xad36
 *(SORT(.rodata*))
 .rodata        0x0000000001126ac0       0x80 arch/x86/cpu/built-in.o
 .rodata        0x0000000001126b40       0x18 arch/x86/cpu/tangier/built-in.o
 .rodata        0x0000000001126b58       0x41 arch/x86/lib/built-in.o
 *fill*         0x0000000001126b99        0x3 
 .rodata        0x0000000001126b9c      0x5ec common/built-in.o
                0x0000000001126c0c                version_string
                0x0000000001126d24                op_adv
                0x0000000001126e80                default_environment
 .rodata        0x0000000001127188      0x108 disk/built-in.o
 .rodata        0x0000000001127290      0x130 drivers/built-in.o
 .rodata        0x00000000011273c0      0x11a drivers/mmc/built-in.o
 *fill*         0x00000000011274da        0x2 
 .rodata        0x00000000011274dc      0x1f4 drivers/usb/dwc3/built-in.o
 .rodata        0x00000000011276d0      0x142 drivers/usb/gadget/built-in.o
 *fill*         0x0000000001127812        0x2 
 .rodata        0x0000000001127814      0x290 fs/built-in.o
 .rodata        0x0000000001127aa4     0x12dc lib/built-in.o
                0x0000000001128398                z_errmsg
                0x00000000011284e8                crc7_syndrome_table
                0x0000000001128c3c                _ctype
 .rodata.str1.1
                0x0000000001128d80      0x347 arch/x86/cpu/built-in.o
                                        0x34c (size before relaxing)
 .rodata.str1.1
                0x00000000011290c7       0x5c arch/x86/cpu/tangier/built-in.o
                                         0x61 (size before relaxing)
 .rodata.str1.1
                0x0000000001129123      0x71e arch/x86/lib/built-in.o
                                        0x779 (size before relaxing)
 .rodata.str1.1
                0x0000000001129841     0x544b common/built-in.o
                                       0x5908 (size before relaxing)
 .rodata.str1.1
                0x000000000112ec8c      0x988 disk/built-in.o
                                        0x9c4 (size before relaxing)
 .rodata.str1.1
                0x000000000112f614      0x4da drivers/built-in.o
                                        0x516 (size before relaxing)
 .rodata.str1.1
                0x000000000112faee      0x367 drivers/mmc/built-in.o
                                        0x3b4 (size before relaxing)
 .rodata.str1.1
                0x000000000112fe55      0x216 drivers/pci/built-in.o
 .rodata.str1.1
                0x000000000113006b       0x57 drivers/serial/built-in.o
                                         0x92 (size before relaxing)
 .rodata.str1.1
                0x00000000011300c2      0x389 drivers/usb/dwc3/built-in.o
                                        0x3cc (size before relaxing)
 .rodata.str1.1
                0x000000000113044b      0x5b9 drivers/usb/gadget/built-in.o
                                        0x5dc (size before relaxing)
 .rodata.str1.1
                0x0000000001130a04      0x9c4 fs/built-in.o
                                        0xa48 (size before relaxing)
 .rodata.str1.1
                0x00000000011313c8      0x42e lib/built-in.o
                                        0x441 (size before relaxing)

.eh_frame       0x00000000011317f8        0x0
 .eh_frame      0x0000000000000000        0x0 arch/x86/cpu/start.o
                0x00000000011317f8                . = ALIGN (0x4)

.data           0x00000000011317f8     0x1848
 *(.data*)
 .data          0x00000000011317f8      0x2cc arch/x86/cpu/tangier/built-in.o
                0x0000000001131848                lib_sysinfo
 .data          0x0000000001131ac4     0x1044 common/built-in.o
                0x0000000001131c38                init_sequence_r
                0x0000000001131fe4                env_name_spec
                0x00000000011326d4                env_htab
                0x0000000001132af8                load_addr
                0x0000000001132afc                stdio_names
 .data          0x0000000001132b08       0x10 disk/built-in.o
 .data          0x0000000001132b18        0xc drivers/built-in.o
 .data          0x0000000001132b24       0x2c drivers/mmc/built-in.o
 .data          0x0000000001132b50       0x90 drivers/serial/built-in.o
                0x0000000001132b50                tng_serial0_device
                0x0000000001132b80                tng_serial1_device
                0x0000000001132bb0                tng_serial2_device
 .data          0x0000000001132be0        0xd drivers/usb/dwc3/built-in.o
 *fill*         0x0000000001132bed        0x3 
 .data          0x0000000001132bf0      0x1c0 drivers/usb/gadget/built-in.o
                0x0000000001132ce0                maxstrings
                0x0000000001132ce4                usbd_device_events
                0x0000000001132d28                usbd_device_states
                0x0000000001132d48                usbd_device_requests
                0x0000000001132d7c                usbd_device_descriptors
                0x0000000001132da0                usbd_device_status
 .data          0x0000000001132db0      0x28c fs/built-in.o
                0x0000000001132e10                ext4fs_indir1_blkno
                0x0000000001132e14                ext4fs_indir2_blkno
                0x0000000001132e18                ext4fs_indir3_blkno
                0x0000000001132e3c                file_cwd
 .data          0x000000000113303c        0x4 lib/built-in.o
                0x0000000001133040                . = ALIGN (0x4)

.hash           0x0000000001133040       0x38
 *(.hash*)
 .hash          0x0000000001133040       0x38 arch/x86/cpu/start.o
                0x0000000001133078                . = ALIGN (0x4)

.got            0x0000000001133078        0x0
 *(.got*)
 .got           0x0000000000000000        0x0 arch/x86/cpu/start.o
 .got.plt       0x0000000000000000        0x0 arch/x86/cpu/start.o
                0x0000000001133078                . = ALIGN (0x4)
                0x0000000001133078                __data_end = .
                0x0000000001133078                __init_end = .
                0x0000000001133078                . = ALIGN (0x4)

.dynsym         0x0000000001133078       0x90
 *(.dynsym*)
 .dynsym        0x0000000001133078       0x90 arch/x86/cpu/start.o
                0x0000000001133108                . = ALIGN (0x4)
                0x0000000001133108                __rel_dyn_start = .

.rel.dyn        0x0000000001133108     0x8390
 *(.rel.dyn)
 .rel.plt       0x0000000000000000        0x0 arch/x86/cpu/start.o
 .rel.got       0x0000000000000000        0x0 arch/x86/cpu/start.o
 .rel.text      0x0000000001133108        0x8 arch/x86/cpu/start.o
 .rel.ifunc     0x0000000000000000        0x0 arch/x86/cpu/start.o
 .rel.text.dump_regs
                0x0000000001133110       0xa8 arch/x86/cpu/start.o
 .rel.text.set_vector
                0x0000000000000000        0x0 arch/x86/cpu/start.o
 .rel.text.cpu_init_interrupts
                0x00000000011331b8       0x68 arch/x86/cpu/start.o
 .rel.text.__do_irq
                0x0000000000000000        0x0 arch/x86/cpu/start.o
 .rel.text.irq_llsr
                0x0000000001133220       0xb8 arch/x86/cpu/start.o
 .rel.text.x86_init_cache
                0x0000000000000000        0x0 arch/x86/cpu/start.o
 .rel.text.do_reset
                0x00000000011332d8       0x18 arch/x86/cpu/start.o
 .rel.text.__reset_cpu
                0x0000000000000000        0x0 arch/x86/cpu/start.o
 .rel.text.dcache_enable
                0x0000000000000000        0x0 arch/x86/cpu/start.o
 .rel.text.dcache_disable
                0x0000000000000000        0x0 arch/x86/cpu/start.o
 .rel.rodata    0x00000000011332f0      0xcf8 arch/x86/cpu/start.o
 .rel.eh_frame  0x0000000000000000        0x0 arch/x86/cpu/start.o
 .rel.text.cpu_init_f
                0x0000000000000000        0x0 arch/x86/cpu/start.o
 .rel.text.board_late_init
                0x0000000001133fe8       0x78 arch/x86/cpu/start.o
 .rel.text.board_mmc_init
                0x0000000000000000        0x0 arch/x86/cpu/start.o
 .rel.text.get_tbclk_mhz
                0x0000000001134060        0x8 arch/x86/cpu/start.o
 .rel.text.reset_cpu
                0x0000000000000000        0x0 arch/x86/cpu/start.o
 .rel.text.config_pci_bridge
                0x0000000000000000        0x0 arch/x86/cpu/start.o
 .rel.text.pci_init_board
                0x0000000001134068       0x68 arch/x86/cpu/start.o
 .rel.text.install_e820_map
                0x0000000000000000        0x0 arch/x86/cpu/start.o
 .rel.text.dram_init_f
                0x0000000000000000        0x0 arch/x86/cpu/start.o
 .rel.data      0x00000000011340d0     0x1140 arch/x86/cpu/start.o
 .rel.text.do_bootm_linux
                0x0000000001135210       0x30 arch/x86/cpu/start.o
 .rel.text.do_go_exec
                0x0000000001135240       0x10 arch/x86/cpu/start.o
 .rel.text.__wrap___divdi3
                0x0000000000000000        0x0 arch/x86/cpu/start.o
 .rel.text.__wrap___udivdi3
                0x0000000000000000        0x0 arch/x86/cpu/start.o
 .rel.text.__wrap___moddi3
                0x0000000000000000        0x0 arch/x86/cpu/start.o
 .rel.text.__wrap___umoddi3
                0x0000000000000000        0x0 arch/x86/cpu/start.o
 .rel.text.calculate_relocation_address
                0x0000000001135250       0x28 arch/x86/cpu/start.o
 .rel.text.init_cache_f_r
                0x0000000000000000        0x0 arch/x86/cpu/start.o
 .rel.text.init_bd_struct_r
                0x0000000000000000        0x0 arch/x86/cpu/start.o
 .rel.text.init_func_spi
                0x0000000000000000        0x0 arch/x86/cpu/start.o
 .rel.text.find_fdt
                0x0000000000000000        0x0 arch/x86/cpu/start.o
 .rel.text.prepare_fdt
                0x0000000000000000        0x0 arch/x86/cpu/start.o
 .rel.text.irq_install_handler
                0x0000000001135278       0x40 arch/x86/cpu/start.o
 .rel.text.irq_free_handler
                0x00000000011352b8       0x20 arch/x86/cpu/start.o
 .rel.text.do_irq
                0x00000000011352d8       0x40 arch/x86/cpu/start.o
 .rel.text.do_irqinfo
                0x0000000001135318       0x58 arch/x86/cpu/start.o
 .rel.text.pci_setup_type1
                0x0000000001135370       0x30 arch/x86/cpu/start.o
 .rel.text.copy_uboot_to_ram
                0x00000000011353a0       0x18 arch/x86/cpu/start.o
 .rel.text.clear_bss
                0x00000000011353b8       0x18 arch/x86/cpu/start.o
 .rel.text.do_elf_reloc_fixups
                0x00000000011353d0       0x20 arch/x86/cpu/start.o
 .rel.text.x86_phys_memset_page
                0x0000000000000000        0x0 arch/x86/cpu/start.o
 .rel.text.arch_phys_memset
                0x0000000000000000        0x0 arch/x86/cpu/start.o
 .rel.text.get_ticks
                0x00000000011353f0        0x8 arch/x86/cpu/start.o
 .rel.text.load_zimage
                0x00000000011353f8       0xe0 arch/x86/cpu/start.o
 .rel.text.setup_zimage
                0x00000000011354d8       0x98 arch/x86/cpu/start.o
 .rel.text.boot_zimage
                0x0000000001135570       0x10 arch/x86/cpu/start.o
 .rel.text.do_zboot
                0x0000000001135580       0x48 arch/x86/cpu/start.o
 .rel.text.sfi_table_check
                0x00000000011355c8       0x20 arch/x86/cpu/start.o
 .rel.text.sfi_search_mmap
                0x00000000011355e8       0x20 arch/x86/cpu/start.o
 .rel.text.sfi_setup_e820
                0x0000000001135608       0x20 arch/x86/cpu/start.o
 .rel.text.sfi_get_ram_size
                0x0000000001135628       0x20 arch/x86/cpu/start.o
 .rel.u_boot_list_2_cmd_2_zboot
                0x0000000001135648       0x20 arch/x86/cpu/start.o
 .rel.text.board_usb_init
                0x0000000000000000        0x0 arch/x86/cpu/start.o
 .rel.text.watchdog_reset
                0x0000000000000000        0x0 arch/x86/cpu/start.o
 .rel.text.watchdog_disable
                0x0000000000000000        0x0 arch/x86/cpu/start.o
 .rel.text.watchdog_init
                0x0000000000000000        0x0 arch/x86/cpu/start.o
 .rel.text.main_loop
                0x0000000001135668       0x30 arch/x86/cpu/start.o
 .rel.text.readline
                0x0000000001135698       0x10 arch/x86/cpu/start.o
 .rel.text.readline_into_buffer
                0x00000000011356a8       0x20 arch/x86/cpu/start.o
 .rel.text.parse_line
                0x0000000000000000        0x0 arch/x86/cpu/start.o
 .rel.text.run_command_list
                0x0000000000000000        0x0 arch/x86/cpu/start.o
 .rel.text.do_run
                0x00000000011356c8        0x8 arch/x86/cpu/start.o
 .rel.text.delete_char.part.0
                0x00000000011356d0       0x18 arch/x86/cpu/start.o
 .rel.text._do_help
                0x00000000011356e8       0x18 arch/x86/cpu/start.o
 .rel.text.find_cmd_tbl
                0x0000000000000000        0x0 arch/x86/cpu/start.o
 .rel.text.find_cmd
                0x0000000001135700       0x18 arch/x86/cpu/start.o
 .rel.text.cmd_usage
                0x0000000001135718       0x18 arch/x86/cpu/start.o
 .rel.text.var_complete
                0x0000000001135730       0x18 arch/x86/cpu/start.o
 .rel.text.cmd_auto_complete
                0x0000000001135748       0x90 arch/x86/cpu/start.o
 .rel.text.cmd_get_data_size
                0x00000000011357d8        0x8 arch/x86/cpu/start.o
 .rel.text.cmd_process
                0x00000000011357e0       0x18 arch/x86/cpu/start.o
 .rel.text.cmd_process_error
                0x0000000000000000        0x0 arch/x86/cpu/start.o
 .rel.text.jumptable_init
                0x00000000011357f8       0xe0 arch/x86/cpu/start.o
 .rel.text.find_hash_algo
                0x00000000011358d8       0x28 arch/x86/cpu/start.o
 .rel.text.hash_command
                0x0000000001135900       0x48 arch/x86/cpu/start.o
 .rel.text.syntax_err
                0x0000000001135948        0x8 arch/x86/cpu/start.o
 .rel.text.b_addqchr
                0x0000000001135950        0x8 arch/x86/cpu/start.o
 .rel.text.file_get
                0x0000000001135958       0xf0 arch/x86/cpu/start.o
 .rel.text.run_list_real
                0x0000000001135a48       0x60 arch/x86/cpu/start.o
 .rel.text.get_local_var
                0x0000000001135aa8       0x38 arch/x86/cpu/start.o
 .rel.text.set_local_var
                0x0000000001135ae0       0x38 arch/x86/cpu/start.o
 .rel.text.unset_local_var
                0x0000000000000000        0x0 arch/x86/cpu/start.o
 .rel.text.is_assignment
                0x0000000001135b18       0x10 arch/x86/cpu/start.o
 .rel.text.done_word
                0x0000000001135b28       0x18 arch/x86/cpu/start.o
 .rel.text.mapset
                0x0000000001135b40        0x8 arch/x86/cpu/start.o
 .rel.text.parse_stream_outer
                0x0000000001135b48       0x90 arch/x86/cpu/start.o
 .rel.text.parse_string_outer
                0x0000000001135bd8       0x28 arch/x86/cpu/start.o
 .rel.text.parse_file_outer
                0x0000000001135c00       0x10 arch/x86/cpu/start.o
 .rel.text.u_boot_hush_start
                0x0000000001135c10       0x20 arch/x86/cpu/start.o
 .rel.text.xmalloc
                0x0000000001135c30        0x8 arch/x86/cpu/start.o
 .rel.text.xrealloc
                0x0000000001135c38        0x8 arch/x86/cpu/start.o
 .rel.text.insert_var_value_sub
                0x0000000001135c40        0x8 arch/x86/cpu/start.o
 .rel.text.do_showvar
                0x0000000001135c48       0x38 arch/x86/cpu/start.o
 .rel.text.srec_decode
                0x0000000001135c80        0x8 arch/x86/cpu/start.o
 .rel.text.xyzModem_get_hdr
                0x0000000001135c88       0xd0 arch/x86/cpu/start.o
 .rel.text.xyzModem_stream_open
                0x0000000001135d58       0xd0 arch/x86/cpu/start.o
 .rel.text.xyzModem_stream_read
                0x0000000001135e28       0xe8 arch/x86/cpu/start.o
 .rel.text.xyzModem_stream_close
                0x0000000001135f10       0x40 arch/x86/cpu/start.o
 .rel.text.xyzModem_stream_terminate
                0x0000000001135f50       0x18 arch/x86/cpu/start.o
 .rel.text.xyzModem_error
                0x0000000001135f68       0x10 arch/x86/cpu/start.o
 .rel.text.CYGACC_COMM_IF_GETC_TIMEOUT.isra.0
                0x0000000001135f78        0x8 arch/x86/cpu/start.o
 .rel.text.init_func_watchdog_init
                0x0000000001135f80        0x8 arch/x86/cpu/start.o
 .rel.text.init_baud_rate
                0x0000000001135f88        0x8 arch/x86/cpu/start.o
 .rel.text.announce_dram_init
                0x0000000001135f90        0x8 arch/x86/cpu/start.o
 .rel.text.show_dram_config
                0x0000000001135f98        0x8 arch/x86/cpu/start.o
 .rel.text.setup_mon_len
                0x0000000001135fa0        0x8 arch/x86/cpu/start.o
 .rel.text.setup_dest_addr
                0x0000000000000000        0x0 arch/x86/cpu/start.o
 .rel.text.board_init_f
                0x0000000001135fa8        0x8 arch/x86/cpu/start.o
 .rel.text.board_init_f_r
                0x0000000001135fb0       0x10 arch/x86/cpu/start.o
 .rel.text.initr_secondary_cpu
                0x0000000000000000        0x0 arch/x86/cpu/start.o
 .rel.text.initr_reloc_global_data
                0x0000000001135fc0       0x10 arch/x86/cpu/start.o
 .rel.text.initr_serial
                0x0000000000000000        0x0 arch/x86/cpu/start.o
 .rel.text.initr_pci
                0x0000000000000000        0x0 arch/x86/cpu/start.o
 .rel.text.initr_mmc
                0x0000000001135fd0        0x8 arch/x86/cpu/start.o
 .rel.text.initr_env
                0x0000000001135fd8       0x18 arch/x86/cpu/start.o
 .rel.text.board_init_r
                0x0000000001135ff0        0x8 arch/x86/cpu/start.o
 .rel.text.do_go
                0x0000000001135ff8       0x18 arch/x86/cpu/start.o
 .rel.text.do_bootm_standalone
                0x0000000001136010       0x20 arch/x86/cpu/start.o
 .rel.text.do_bootm
                0x0000000001136030       0x20 arch/x86/cpu/start.o
 .rel.text.bootm_maybe_autostart
                0x0000000000000000        0x0 arch/x86/cpu/start.o
 .rel.text.do_bootd
                0x0000000001136050        0x8 arch/x86/cpu/start.o
 .rel.text.copy_args
                0x0000000000000000        0x0 arch/x86/cpu/start.o
 .rel.text.do_bootm_netbsd
                0x0000000001136058       0x20 arch/x86/cpu/start.o
 .rel.text.do_bootm_rtems
                0x0000000001136078        0x8 arch/x86/cpu/start.o
 .rel.text.do_bootm_plan9
                0x0000000001136080       0x20 arch/x86/cpu/start.o
 .rel.text.do_bootm_qnxelf
                0x00000000011360a0        0x8 arch/x86/cpu/start.o
 .rel.text.do_bootm_states.isra.21.constprop.22
                0x00000000011360a8      0x258 arch/x86/cpu/start.o
 .rel.text.do_help
                0x0000000001136300       0x18 arch/x86/cpu/start.o
 .rel.text.do_version
                0x0000000001136318       0x20 arch/x86/cpu/start.o
 .rel.text.env_attr_walk
                0x0000000000000000        0x0 arch/x86/cpu/start.o
 .rel.text.env_attr_lookup
                0x0000000001136338        0x8 arch/x86/cpu/start.o
 .rel.text.find_env_callback
                0x0000000001136340       0x20 arch/x86/cpu/start.o
 .rel.text.env_callback_init
                0x0000000001136360       0x30 arch/x86/cpu/start.o
 .rel.text.set_callback
                0x0000000001136390        0x8 arch/x86/cpu/start.o
 .rel.text.on_callbacks
                0x0000000001136398       0x28 arch/x86/cpu/start.o
 .rel.text.env_flags_print_vartypes
                0x00000000011363c0       0x18 arch/x86/cpu/start.o
 .rel.text.env_flags_print_varaccess
                0x00000000011363d8       0x18 arch/x86/cpu/start.o
 .rel.text.env_flags_get_vartype_name
                0x00000000011363f0        0x8 arch/x86/cpu/start.o
 .rel.text.env_flags_get_varaccess_name
                0x00000000011363f8        0x8 arch/x86/cpu/start.o
 .rel.text.env_flags_parse_vartype
                0x0000000001136400       0x18 arch/x86/cpu/start.o
 .rel.text.env_flags_parse_varaccess
                0x0000000001136418       0x18 arch/x86/cpu/start.o
 .rel.text.env_flags_init
                0x0000000001136430       0x38 arch/x86/cpu/start.o
 .rel.text.set_flags
                0x0000000001136468       0x10 arch/x86/cpu/start.o
 .rel.text.on_flags
                0x0000000001136478       0x28 arch/x86/cpu/start.o
 .rel.text.env_flags_validate
                0x00000000011364a0       0x58 arch/x86/cpu/start.o
 .rel.text.env_init
                0x00000000011364f8        0x8 arch/x86/cpu/start.o
 .rel.text.init_mmc_for_env
                0x0000000001136500       0x18 arch/x86/cpu/start.o
 .rel.text.saveenv
                0x0000000001136518       0x60 arch/x86/cpu/start.o
 .rel.text.env_relocate_spec
                0x0000000001136578       0x28 arch/x86/cpu/start.o
 .rel.text.source
                0x00000000011365a0       0x38 arch/x86/cpu/start.o
 .rel.text.do_source
                0x00000000011365d8       0x10 arch/x86/cpu/start.o
 .rel.text.print_num
                0x00000000011365e8        0x8 arch/x86/cpu/start.o
 .rel.text.do_bdinfo
                0x00000000011365f0       0x88 arch/x86/cpu/start.o
 .rel.text.invalidate_icache_all
                0x0000000001136678        0x8 arch/x86/cpu/start.o
 .rel.text.do_icache
                0x0000000001136680       0x18 arch/x86/cpu/start.o
 .rel.text.flush_dcache_all
                0x0000000001136698        0x8 arch/x86/cpu/start.o
 .rel.text.do_dcache
                0x00000000011366a0       0x18 arch/x86/cpu/start.o
 .rel.text.parse_argv
                0x00000000011366b8       0x30 arch/x86/cpu/start.o
 .rel.text.do_coninfo
                0x00000000011366e8       0x28 arch/x86/cpu/start.o
 .rel.text.do_echo
                0x0000000001136710       0x10 arch/x86/cpu/start.o
 .rel.text.valid_elf_image
                0x0000000001136720       0x10 arch/x86/cpu/start.o
 .rel.text.do_bootelf
                0x0000000001136730       0x20 arch/x86/cpu/start.o
 .rel.text.do_bootvx
                0x0000000001136750       0xb0 arch/x86/cpu/start.o
 .rel.text.do_exit
                0x0000000001136800        0x8 arch/x86/cpu/start.o
 .rel.text.do_ext4_load
                0x0000000000000000        0x0 arch/x86/cpu/start.o
 .rel.text.do_ext4_ls
                0x0000000000000000        0x0 arch/x86/cpu/start.o
 .rel.text.do_ext4_write
                0x0000000001136808       0x30 arch/x86/cpu/start.o
 .rel.text.do_fat_fsload
                0x0000000000000000        0x0 arch/x86/cpu/start.o
 .rel.text.do_fat_ls
                0x0000000000000000        0x0 arch/x86/cpu/start.o
 .rel.text.do_fat_fsinfo
                0x0000000001136838       0x20 arch/x86/cpu/start.o
 .rel.text.do_fat_fswrite
                0x0000000001136858       0x30 arch/x86/cpu/start.o
 .rel.text.do_load_wrapper
                0x0000000000000000        0x0 arch/x86/cpu/start.o
 .rel.text.do_ls_wrapper
                0x0000000000000000        0x0 arch/x86/cpu/start.o
 .rel.text.do_gettime
                0x0000000001136888       0x20 arch/x86/cpu/start.o
 .rel.text.do_hash
                0x00000000011368a8        0x8 arch/x86/cpu/start.o
 .rel.text.rstrip
                0x00000000011368b0        0x8 arch/x86/cpu/start.o
 .rel.text.find_char_or_comment
                0x00000000011368b8        0x8 arch/x86/cpu/start.o
 .rel.text.ini_handler
                0x00000000011368c0       0x10 arch/x86/cpu/start.o
 .rel.text.do_ini
                0x00000000011368d0       0x20 arch/x86/cpu/start.o
 .rel.text.ini_parse.constprop.1
                0x00000000011368f0       0x10 arch/x86/cpu/start.o
 .rel.text.do_interrupts
                0x0000000001136900        0x8 arch/x86/cpu/start.o
 .rel.text.evalexp
                0x0000000001136908       0x10 arch/x86/cpu/start.o
 .rel.text.evalstr
                0x0000000001136918        0x8 arch/x86/cpu/start.o
 .rel.text.binary_test
                0x0000000001136920       0x30 arch/x86/cpu/start.o
 .rel.text.do_itest
                0x0000000001136950        0x8 arch/x86/cpu/start.o
 .rel.text.do_load_serial
                0x0000000001136958       0x48 arch/x86/cpu/start.o
 .rel.text.load_serial
                0x00000000011369a0       0x30 arch/x86/cpu/start.o
 .rel.text.do_load_serial_bin
                0x00000000011369d0      0x350 arch/x86/cpu/start.o
 .rel.text.bin_data_init
                0x0000000001136d20       0x18 arch/x86/cpu/start.o
 .rel.text.bin_data_char
                0x0000000001136d38       0x18 arch/x86/cpu/start.o
 .rel.text.k_data_save
                0x0000000001136d50       0x30 arch/x86/cpu/start.o
 .rel.text.k_data_restore
                0x0000000001136d80       0x30 arch/x86/cpu/start.o
 .rel.text.load_serial_ymodem
                0x0000000001136db0       0x20 arch/x86/cpu/start.o
 .rel.text.chk1.constprop.1
                0x0000000001136dd0        0x8 arch/x86/cpu/start.o
 .rel.text.s1_sendpacket.constprop.2
                0x0000000001136dd8       0x18 arch/x86/cpu/start.o
 .rel.text.do_mem_md
                0x0000000001136df0       0x48 arch/x86/cpu/start.o
 .rel.text.do_mem_mw
                0x0000000001136e38       0x20 arch/x86/cpu/start.o
 .rel.text.do_mem_cmp
                0x0000000001136e58       0x58 arch/x86/cpu/start.o
 .rel.text.do_mem_cp
                0x0000000001136eb0       0x30 arch/x86/cpu/start.o
 .rel.text.do_mem_base
                0x0000000001136ee0       0x20 arch/x86/cpu/start.o
 .rel.text.do_mem_loop
                0x0000000001136f00       0x10 arch/x86/cpu/start.o
 .rel.text.do_mem_crc
                0x0000000001136f10        0x8 arch/x86/cpu/start.o
 .rel.text.board_show_dram
                0x0000000001136f18       0x10 arch/x86/cpu/start.o
 .rel.text.do_mem_info
                0x0000000000000000        0x0 arch/x86/cpu/start.o
 .rel.text.mod_mem.isra.2
                0x0000000001136f28       0x78 arch/x86/cpu/start.o
 .rel.text.do_sleep
                0x0000000001136fa0       0x10 arch/x86/cpu/start.o
 .rel.text.do_timer
                0x0000000001136fb0       0x38 arch/x86/cpu/start.o
 .rel.text.do_mmcinfo
                0x0000000001136fe8       0xa8 arch/x86/cpu/start.o
 .rel.text.do_mmcops
                0x0000000001137090      0x2a8 arch/x86/cpu/start.o
 .rel.text.do_part_info
                0x0000000001137338       0x30 arch/x86/cpu/start.o
 .rel.text.do_part_find
                0x0000000001137368       0x48 arch/x86/cpu/start.o
 .rel.text.do_part_uuid
                0x00000000011373b0        0x8 arch/x86/cpu/start.o
 .rel.text.do_part_list
                0x0000000000000000        0x0 arch/x86/cpu/start.o
 .rel.text.do_part
                0x00000000011373b8       0x40 arch/x86/cpu/start.o
 .rel.text.pciinfo
                0x00000000011373f8       0x28 arch/x86/cpu/start.o
 .rel.text.pci_header_show_brief
                0x0000000001137420        0x8 arch/x86/cpu/start.o
 .rel.text.pci_header_show
                0x0000000001137428      0x238 arch/x86/cpu/start.o
 .rel.text.pci_cfg_write
                0x0000000000000000        0x0 arch/x86/cpu/start.o
 .rel.text.do_pci
                0x0000000001137660       0x50 arch/x86/cpu/start.o
 .rel.text.pci_cfg_modify.isra.0
                0x00000000011376b0       0x48 arch/x86/cpu/start.o
 .rel.text.do_portio_out
                0x00000000011376f8       0x40 arch/x86/cpu/start.o
 .rel.text.do_portio_in
                0x0000000001137738       0x40 arch/x86/cpu/start.o
 .rel.text.do_read
                0x0000000001137778       0x48 arch/x86/cpu/start.o
 .rel.text.do_sha1sum
                0x00000000011377c0        0x8 arch/x86/cpu/start.o
 .rel.text.get_arg
                0x00000000011377c8       0x10 arch/x86/cpu/start.o
 .rel.text.do_setexpr
                0x00000000011377d8        0x8 arch/x86/cpu/start.o
 .rel.text.do_test
                0x00000000011377e0       0xa8 arch/x86/cpu/start.o
 .rel.text.do_dfu
                0x0000000001137888       0x38 arch/x86/cpu/start.o
 .rel.text.extract_env
                0x00000000011378c0        0x8 arch/x86/cpu/start.o
 .rel.text.extract_val
                0x00000000011378c8       0x18 arch/x86/cpu/start.o
 .rel.text.do_gpt
                0x00000000011378e0       0x98 arch/x86/cpu/start.o
 .rel.text.get_env_id
                0x0000000000000000        0x0 arch/x86/cpu/start.o
 .rel.text.env_print
                0x0000000001137978       0x20 arch/x86/cpu/start.o
 .rel.text.do_env_print
                0x0000000001137998       0x10 arch/x86/cpu/start.o
 .rel.text.do_env_grep
                0x00000000011379a8        0x8 arch/x86/cpu/start.o
 .rel.text.setenv
                0x00000000011379b0        0x8 arch/x86/cpu/start.o
 .rel.text.setenv_ulong
                0x0000000000000000        0x0 arch/x86/cpu/start.o
 .rel.text.setenv_hex
                0x00000000011379b8        0x8 arch/x86/cpu/start.o
 .rel.text.getenv_hex
                0x0000000000000000        0x0 arch/x86/cpu/start.o
 .rel.text.do_env_ask
                0x00000000011379c0       0x28 arch/x86/cpu/start.o
 .rel.text.print_static_binding
                0x00000000011379e8        0x8 arch/x86/cpu/start.o
 .rel.text.print_active_callback
                0x00000000011379f0       0x28 arch/x86/cpu/start.o
 .rel.text.do_env_callback
                0x0000000001137a18       0xd8 arch/x86/cpu/start.o
 .rel.text.print_static_flags
                0x0000000001137af0        0x8 arch/x86/cpu/start.o
 .rel.text.print_active_flags
                0x0000000001137af8        0x8 arch/x86/cpu/start.o
 .rel.text.do_env_flags
                0x0000000001137b00       0xf8 arch/x86/cpu/start.o
 .rel.text.do_env_edit
                0x0000000001137bf8       0x10 arch/x86/cpu/start.o
 .rel.text.getenv
                0x0000000001137c08        0x8 arch/x86/cpu/start.o
 .rel.text.getenv_f
                0x0000000001137c10        0x8 arch/x86/cpu/start.o
 .rel.text.getenv_ulong
                0x0000000001137c18        0x8 arch/x86/cpu/start.o
 .rel.text.do_env_save
                0x0000000001137c20       0x10 arch/x86/cpu/start.o
 .rel.text.do_env_default
                0x0000000001137c30        0x8 arch/x86/cpu/start.o
 .rel.text.do_env_delete
                0x0000000001137c38       0x10 arch/x86/cpu/start.o
 .rel.text.do_env_export
                0x0000000001137c48       0x68 arch/x86/cpu/start.o
 .rel.text.do_env_import
                0x0000000001137cb0       0x68 arch/x86/cpu/start.o
 .rel.text.do_env_exists
                0x0000000001137d18        0x8 arch/x86/cpu/start.o
 .rel.text.do_env
                0x0000000001137d20        0x8 arch/x86/cpu/start.o
 .rel.text._do_env_set.isra.0
                0x0000000001137d28       0x38 arch/x86/cpu/start.o
 .rel.text.env_get_char
                0x0000000001137d60        0x8 arch/x86/cpu/start.o
 .rel.text.env_get_addr
                0x0000000001137d68        0x8 arch/x86/cpu/start.o
 .rel.text.set_default_env
                0x0000000001137d70       0x40 arch/x86/cpu/start.o
 .rel.text.set_default_vars
                0x0000000001137db0       0x10 arch/x86/cpu/start.o
 .rel.text.env_import
                0x0000000001137dc0       0x38 arch/x86/cpu/start.o
 .rel.text.env_relocate
                0x0000000001137df8        0x8 arch/x86/cpu/start.o
 .rel.text.env_complete
                0x0000000001137e00       0x18 arch/x86/cpu/start.o
 .rel.text.on_console
                0x0000000001137e18       0x38 arch/x86/cpu/start.o
 .rel.text.console_setfile
                0x0000000001137e50       0x10 arch/x86/cpu/start.o
 .rel.text.serial_printf
                0x0000000001137e60        0x8 arch/x86/cpu/start.o
 .rel.text.fgetc
                0x0000000001137e68        0x8 arch/x86/cpu/start.o
 .rel.text.ftstc
                0x0000000001137e70        0x8 arch/x86/cpu/start.o
 .rel.text.fputc
                0x0000000001137e78        0x8 arch/x86/cpu/start.o
 .rel.text.fputs
                0x0000000000000000        0x0 arch/x86/cpu/start.o
 .rel.text.fprintf
                0x0000000000000000        0x0 arch/x86/cpu/start.o
 .rel.text.getc
                0x0000000001137e80        0x8 arch/x86/cpu/start.o
 .rel.text.tstc
                0x0000000001137e88        0x8 arch/x86/cpu/start.o
 .rel.text.putc
                0x0000000001137e90        0x8 arch/x86/cpu/start.o
 .rel.text.puts
                0x0000000001137e98       0x10 arch/x86/cpu/start.o
 .rel.text.printf
                0x0000000000000000        0x0 arch/x86/cpu/start.o
 .rel.text.vprintf
                0x0000000000000000        0x0 arch/x86/cpu/start.o
 .rel.text.ctrlc
                0x0000000001137ea8       0x10 arch/x86/cpu/start.o
 .rel.text.disable_ctrlc
                0x0000000000000000        0x0 arch/x86/cpu/start.o
 .rel.text.had_ctrlc
                0x0000000001137eb8        0x8 arch/x86/cpu/start.o
 .rel.text.clear_ctrlc
                0x0000000001137ec0        0x8 arch/x86/cpu/start.o
 .rel.text.stdio_print_current_devices
                0x0000000001137ec8       0x60 arch/x86/cpu/start.o
 .rel.text.console_init_r
                0x0000000001137f28       0x10 arch/x86/cpu/start.o
 .rel.text.sbrk
                0x0000000001137f38       0x20 arch/x86/cpu/start.o
 .rel.text.mem_malloc_init
                0x0000000001137f58       0x18 arch/x86/cpu/start.o
 .rel.text.malloc
                0x0000000001137f70      0x190 arch/x86/cpu/start.o
 .rel.text.free
                0x0000000001138100       0x70 arch/x86/cpu/start.o
 .rel.text.realloc
                0x0000000001138170       0x18 arch/x86/cpu/start.o
 .rel.text.calloc
                0x0000000001138188        0x8 arch/x86/cpu/start.o
 .rel.text.malloc_trim
                0x0000000001138190       0x38 arch/x86/cpu/start.o
 .rel.text.mallopt
                0x0000000000000000        0x0 arch/x86/cpu/start.o
 .rel.text.image_check_hcrc
                0x0000000000000000        0x0 arch/x86/cpu/start.o
 .rel.text.image_check_dcrc
                0x0000000000000000        0x0 arch/x86/cpu/start.o
 .rel.text.image_print_contents
                0x00000000011381c8       0x88 arch/x86/cpu/start.o
 .rel.text.on_loadaddr
                0x0000000001138250       0x10 arch/x86/cpu/start.o
 .rel.text.getenv_bootm_low
                0x0000000000000000        0x0 arch/x86/cpu/start.o
 .rel.text.getenv_bootm_size
                0x0000000000000000        0x0 arch/x86/cpu/start.o
 .rel.text.getenv_bootm_mapsize
                0x0000000000000000        0x0 arch/x86/cpu/start.o
 .rel.text.memmove_wd
                0x0000000000000000        0x0 arch/x86/cpu/start.o
 .rel.text.genimg_print_size
                0x0000000001138260       0x10 arch/x86/cpu/start.o
 .rel.text.genimg_get_os_name
                0x0000000001138270       0x10 arch/x86/cpu/start.o
 .rel.text.genimg_get_arch_name
                0x0000000001138280       0x10 arch/x86/cpu/start.o
 .rel.text.genimg_get_type_name
                0x0000000001138290       0x10 arch/x86/cpu/start.o
 .rel.text.genimg_get_comp_name
                0x00000000011382a0       0x10 arch/x86/cpu/start.o
 .rel.text.get_table_entry_id
                0x0000000000000000        0x0 arch/x86/cpu/start.o
 .rel.text.genimg_get_os_id
                0x0000000000000000        0x0 arch/x86/cpu/start.o
 .rel.text.genimg_get_arch_id
                0x0000000000000000        0x0 arch/x86/cpu/start.o
 .rel.text.genimg_get_type_id
                0x0000000000000000        0x0 arch/x86/cpu/start.o
 .rel.text.genimg_get_comp_id
                0x0000000000000000        0x0 arch/x86/cpu/start.o
 .rel.text.boot_get_ramdisk
                0x00000000011382b0       0x60 arch/x86/cpu/start.o
 .rel.text.stdio_get_list
                0x0000000001138310        0x8 arch/x86/cpu/start.o
 .rel.text.stdio_get_by_name
                0x0000000001138318       0x18 arch/x86/cpu/start.o
 .rel.text.stdio_register
                0x0000000001138330       0x18 arch/x86/cpu/start.o
 .rel.text.stdio_init
                0x0000000001138348       0x48 arch/x86/cpu/start.o
 .rel.u_boot_list_2_cmd_2_showvar
                0x0000000001138390       0x20 arch/x86/cpu/start.o
 .rel.u_boot_list_2_cmd_2_go
                0x00000000011383b0       0x20 arch/x86/cpu/start.o
 .rel.u_boot_list_2_cmd_2_reset
                0x00000000011383d0       0x20 arch/x86/cpu/start.o
 .rel.u_boot_list_2_cmd_2_bootm
                0x00000000011383f0       0x20 arch/x86/cpu/start.o
 .rel.u_boot_list_2_cmd_2_boot
                0x0000000001138410       0x20 arch/x86/cpu/start.o
 .rel.u_boot_list_2_cmd_2_bootd
                0x0000000001138430       0x20 arch/x86/cpu/start.o
 .rel.u_boot_list_2_cmd_2_help
                0x0000000001138450       0x20 arch/x86/cpu/start.o
 .rel.u_boot_list_2_cmd_2_question_mark
                0x0000000001138470       0x20 arch/x86/cpu/start.o
 .rel.u_boot_list_2_cmd_2_version
                0x0000000001138490       0x20 arch/x86/cpu/start.o
 .rel.u_boot_list_2_env_clbk_2_callbacks
                0x00000000011384b0       0x10 arch/x86/cpu/start.o
 .rel.u_boot_list_2_env_clbk_2_flags
                0x00000000011384c0       0x10 arch/x86/cpu/start.o
 .rel.u_boot_list_2_cmd_2_source
                0x00000000011384d0       0x20 arch/x86/cpu/start.o
 .rel.u_boot_list_2_cmd_2_bdinfo
                0x00000000011384f0       0x20 arch/x86/cpu/start.o
 .rel.u_boot_list_2_cmd_2_icache
                0x0000000001138510       0x20 arch/x86/cpu/start.o
 .rel.u_boot_list_2_cmd_2_dcache
                0x0000000001138530       0x20 arch/x86/cpu/start.o
 .rel.u_boot_list_2_cmd_2_coninfo
                0x0000000001138550       0x20 arch/x86/cpu/start.o
 .rel.u_boot_list_2_cmd_2_echo
                0x0000000001138570       0x20 arch/x86/cpu/start.o
 .rel.u_boot_list_2_cmd_2_bootelf
                0x0000000001138590       0x20 arch/x86/cpu/start.o
 .rel.u_boot_list_2_cmd_2_bootvx
                0x00000000011385b0       0x20 arch/x86/cpu/start.o
 .rel.u_boot_list_2_cmd_2_exit
                0x00000000011385d0       0x20 arch/x86/cpu/start.o
 .rel.u_boot_list_2_cmd_2_ext4write
                0x00000000011385f0       0x20 arch/x86/cpu/start.o
 .rel.u_boot_list_2_cmd_2_ext4ls
                0x0000000001138610       0x20 arch/x86/cpu/start.o
 .rel.u_boot_list_2_cmd_2_ext4load
                0x0000000001138630       0x20 arch/x86/cpu/start.o
 .rel.u_boot_list_2_cmd_2_fatload
                0x0000000001138650       0x20 arch/x86/cpu/start.o
 .rel.u_boot_list_2_cmd_2_fatls
                0x0000000001138670       0x20 arch/x86/cpu/start.o
 .rel.u_boot_list_2_cmd_2_fatinfo
                0x0000000001138690       0x20 arch/x86/cpu/start.o
 .rel.u_boot_list_2_cmd_2_fatwrite
                0x00000000011386b0       0x20 arch/x86/cpu/start.o
 .rel.u_boot_list_2_cmd_2_load
                0x00000000011386d0       0x20 arch/x86/cpu/start.o
 .rel.u_boot_list_2_cmd_2_ls
                0x00000000011386f0       0x20 arch/x86/cpu/start.o
 .rel.u_boot_list_2_cmd_2_gettime
                0x0000000001138710       0x20 arch/x86/cpu/start.o
 .rel.u_boot_list_2_cmd_2_hash
                0x0000000001138730       0x20 arch/x86/cpu/start.o
 .rel.u_boot_list_2_cmd_2_ini
                0x0000000001138750       0x20 arch/x86/cpu/start.o
 .rel.u_boot_list_2_cmd_2_interrupts
                0x0000000001138770       0x20 arch/x86/cpu/start.o
 .rel.u_boot_list_2_cmd_2_irqinfo
                0x0000000001138790       0x20 arch/x86/cpu/start.o
 .rel.u_boot_list_2_cmd_2_itest
                0x00000000011387b0       0x20 arch/x86/cpu/start.o
 .rel.u_boot_list_2_cmd_2_loads
                0x00000000011387d0       0x20 arch/x86/cpu/start.o
 .rel.u_boot_list_2_cmd_2_loadb
                0x00000000011387f0       0x20 arch/x86/cpu/start.o
 .rel.u_boot_list_2_cmd_2_loadx
                0x0000000001138810       0x20 arch/x86/cpu/start.o
 .rel.u_boot_list_2_cmd_2_loady
                0x0000000001138830       0x20 arch/x86/cpu/start.o
 .rel.u_boot_list_2_cmd_2_md
                0x0000000001138850       0x20 arch/x86/cpu/start.o
 .rel.u_boot_list_2_cmd_2_mm
                0x0000000001138870       0x20 arch/x86/cpu/start.o
 .rel.u_boot_list_2_cmd_2_nm
                0x0000000001138890       0x20 arch/x86/cpu/start.o
 .rel.u_boot_list_2_cmd_2_mw
                0x00000000011388b0       0x20 arch/x86/cpu/start.o
 .rel.u_boot_list_2_cmd_2_cp
                0x00000000011388d0       0x20 arch/x86/cpu/start.o
 .rel.u_boot_list_2_cmd_2_cmp
                0x00000000011388f0       0x20 arch/x86/cpu/start.o
 .rel.u_boot_list_2_cmd_2_crc32
                0x0000000001138910       0x20 arch/x86/cpu/start.o
 .rel.u_boot_list_2_cmd_2_base
                0x0000000001138930       0x20 arch/x86/cpu/start.o
 .rel.u_boot_list_2_cmd_2_loop
                0x0000000001138950       0x20 arch/x86/cpu/start.o
 .rel.u_boot_list_2_cmd_2_meminfo
                0x0000000001138970       0x20 arch/x86/cpu/start.o
 .rel.u_boot_list_2_cmd_2_sleep
                0x0000000001138990       0x20 arch/x86/cpu/start.o
 .rel.u_boot_list_2_cmd_2_timer
                0x00000000011389b0       0x20 arch/x86/cpu/start.o
 .rel.u_boot_list_2_cmd_2_mmcinfo
                0x00000000011389d0       0x20 arch/x86/cpu/start.o
 .rel.u_boot_list_2_cmd_2_mmc
                0x00000000011389f0       0x20 arch/x86/cpu/start.o
 .rel.u_boot_list_2_cmd_2_part
                0x0000000001138a10       0x20 arch/x86/cpu/start.o
 .rel.u_boot_list_2_cmd_2_pci
                0x0000000001138a30       0x20 arch/x86/cpu/start.o
 .rel.u_boot_list_2_cmd_2_out
                0x0000000001138a50       0x20 arch/x86/cpu/start.o
 .rel.u_boot_list_2_cmd_2_in
                0x0000000001138a70       0x20 arch/x86/cpu/start.o
 .rel.u_boot_list_2_cmd_2_read
                0x0000000001138a90       0x20 arch/x86/cpu/start.o
 .rel.u_boot_list_2_cmd_2_reginfo
                0x0000000001138ab0       0x20 arch/x86/cpu/start.o
 .rel.u_boot_list_2_cmd_2_sha1sum
                0x0000000001138ad0       0x20 arch/x86/cpu/start.o
 .rel.u_boot_list_2_cmd_2_setexpr
                0x0000000001138af0       0x20 arch/x86/cpu/start.o
 .rel.u_boot_list_2_cmd_2_test
                0x0000000001138b10       0x20 arch/x86/cpu/start.o
 .rel.u_boot_list_2_cmd_2_false
                0x0000000001138b30       0x18 arch/x86/cpu/start.o
 .rel.u_boot_list_2_cmd_2_true
                0x0000000001138b48       0x18 arch/x86/cpu/start.o
 .rel.u_boot_list_2_cmd_2_dfu
                0x0000000001138b60       0x20 arch/x86/cpu/start.o
 .rel.u_boot_list_2_cmd_2_gpt
                0x0000000001138b80       0x20 arch/x86/cpu/start.o
 .rel.u_boot_list_2_cmd_2_saveenv
                0x0000000001138ba0       0x20 arch/x86/cpu/start.o
 .rel.u_boot_list_2_cmd_2_env
                0x0000000001138bc0       0x20 arch/x86/cpu/start.o
 .rel.u_boot_list_2_cmd_2_editenv
                0x0000000001138be0       0x28 arch/x86/cpu/start.o
 .rel.u_boot_list_2_cmd_2_printenv
                0x0000000001138c08       0x28 arch/x86/cpu/start.o
 .rel.u_boot_list_2_cmd_2_grepenv
                0x0000000001138c30       0x28 arch/x86/cpu/start.o
 .rel.u_boot_list_2_cmd_2_setenv
                0x0000000001138c58       0x28 arch/x86/cpu/start.o
 .rel.u_boot_list_2_cmd_2_askenv
                0x0000000001138c80       0x20 arch/x86/cpu/start.o
 .rel.u_boot_list_2_cmd_2_run
                0x0000000001138ca0       0x28 arch/x86/cpu/start.o
 .rel.u_boot_list_2_env_clbk_2_console
                0x0000000001138cc8       0x10 arch/x86/cpu/start.o
 .rel.u_boot_list_2_env_clbk_2_loadaddr
                0x0000000001138cd8       0x10 arch/x86/cpu/start.o
 .rel.text.get_dev
                0x0000000001138ce8        0x8 arch/x86/cpu/start.o
 .rel.text.dev_print
                0x0000000001138cf0       0x90 arch/x86/cpu/start.o
 .rel.text.print_part_header
                0x0000000001138d80       0x60 arch/x86/cpu/start.o
 .rel.text.print_part
                0x0000000001138de0       0x20 arch/x86/cpu/start.o
 .rel.text.get_device
                0x0000000001138e00       0x18 arch/x86/cpu/start.o
 .rel.text.get_device_and_partition
                0x0000000001138e18       0x80 arch/x86/cpu/start.o
 .rel.text.print_part_mac
                0x0000000001138e98       0x28 arch/x86/cpu/start.o
 .rel.text.part_mac_read_ddb
                0x0000000001138ec0        0x8 arch/x86/cpu/start.o
 .rel.text.get_partition_info_mac
                0x0000000001138ec8       0x18 arch/x86/cpu/start.o
 .rel.text.test_block_type
                0x0000000001138ee0       0x10 arch/x86/cpu/start.o
 .rel.text.print_partition_extended
                0x0000000001138ef0       0x38 arch/x86/cpu/start.o
 .rel.text.get_partition_info_extended
                0x0000000001138f28       0x50 arch/x86/cpu/start.o
 .rel.text.print_part_dos
                0x0000000001138f78        0x8 arch/x86/cpu/start.o
 .rel.text.print_efiname
                0x0000000001138f80       0x20 arch/x86/cpu/start.o
 .rel.text.print_part_efi
                0x0000000001138fa0       0x50 arch/x86/cpu/start.o
 .rel.text.get_partition_info_efi
                0x0000000001138ff0       0x38 arch/x86/cpu/start.o
 .rel.text.set_protective_mbr
                0x0000000001139028       0x20 arch/x86/cpu/start.o
 .rel.text.write_gpt_table
                0x0000000001139048        0x8 arch/x86/cpu/start.o
 .rel.text.gpt_fill_pte
                0x0000000001139050       0x20 arch/x86/cpu/start.o
 .rel.text.gpt_fill_header
                0x0000000000000000        0x0 arch/x86/cpu/start.o
 .rel.text.gpt_restore
                0x0000000001139070       0x20 arch/x86/cpu/start.o
 .rel.text.is_pte_valid
                0x0000000001139090       0x10 arch/x86/cpu/start.o
 .rel.text.is_gpt_valid.constprop.1
                0x00000000011390a0       0x68 arch/x86/cpu/start.o
 .rel.text.intel_scu_ipc_check_status
                0x0000000001139108       0x18 arch/x86/cpu/start.o
 .rel.text.dfu_reset
                0x0000000001139120        0x8 arch/x86/cpu/start.o
 .rel.text.dfu_trigger_reset
                0x0000000001139128        0x8 arch/x86/cpu/start.o
 .rel.text.dfu_enum_done
                0x0000000001139130        0x8 arch/x86/cpu/start.o
 .rel.text.dfu_trigger_enum_done
                0x0000000001139138        0x8 arch/x86/cpu/start.o
 .rel.text.dfu_init_env_entities
                0x0000000001139140       0x40 arch/x86/cpu/start.o
 .rel.text.dfu_free_buf
                0x0000000001139180       0x10 arch/x86/cpu/start.o
 .rel.text.dfu_get_buf_size
                0x0000000001139190        0x8 arch/x86/cpu/start.o
 .rel.text.dfu_get_buf
                0x0000000001139198       0x48 arch/x86/cpu/start.o
 .rel.text.dfu_write_buffer_drain
                0x00000000011391e0        0x8 arch/x86/cpu/start.o
 .rel.text.dfu_flush
                0x00000000011391e8       0x10 arch/x86/cpu/start.o
 .rel.text.dfu_write
                0x00000000011391f8       0x30 arch/x86/cpu/start.o
 .rel.text.dfu_read
                0x0000000001139228       0x40 arch/x86/cpu/start.o
 .rel.text.dfu_free_entities
                0x0000000001139268       0x38 arch/x86/cpu/start.o
 .rel.text.dfu_config_entities
                0x00000000011392a0       0x90 arch/x86/cpu/start.o
 .rel.text.dfu_get_dev_type
                0x0000000001139330        0x8 arch/x86/cpu/start.o
 .rel.text.dfu_get_layout
                0x0000000001139338        0x8 arch/x86/cpu/start.o
 .rel.text.dfu_show_entities
                0x0000000001139340       0x20 arch/x86/cpu/start.o
 .rel.text.dfu_get_alt_number
                0x0000000001139360        0x8 arch/x86/cpu/start.o
 .rel.text.dfu_get_entity
                0x0000000001139368       0x10 arch/x86/cpu/start.o
 .rel.text.dfu_get_alt
                0x0000000000000000        0x0 arch/x86/cpu/start.o
 .rel.text.mmc_block_op
                0x0000000001139378       0x38 arch/x86/cpu/start.o
 .rel.text.mmc_file_op
                0x00000000011393b0       0x68 arch/x86/cpu/start.o
 .rel.text.dfu_write_medium_mmc
                0x0000000001139418       0x30 arch/x86/cpu/start.o
 .rel.text.dfu_flush_medium_mmc
                0x0000000001139448       0x18 arch/x86/cpu/start.o
 .rel.text.dfu_read_medium_mmc
                0x0000000001139460       0x10 arch/x86/cpu/start.o
 .rel.text.dfu_fill_entity_mmc
                0x0000000001139470       0xe0 arch/x86/cpu/start.o
 .rel.text.mmc_access_part.isra.0
                0x0000000001139550       0x18 arch/x86/cpu/start.o
 .rel.text.dfu_write_medium_ram
                0x0000000001139568       0x30 arch/x86/cpu/start.o
 .rel.text.dfu_read_medium_ram
                0x0000000001139598       0x30 arch/x86/cpu/start.o
 .rel.text.dfu_fill_entity_ram
                0x00000000011395c8       0x50 arch/x86/cpu/start.o
 .rel.text.input_send_keycodes
                0x0000000000000000        0x0 arch/x86/cpu/start.o
 .rel.text.input_init
                0x0000000000000000        0x0 arch/x86/cpu/start.o
 .rel.text.input_stdio_register
                0x0000000000000000        0x0 arch/x86/cpu/start.o
 .rel.text.mmc_getwp
                0x0000000000000000        0x0 arch/x86/cpu/start.o
 .rel.text.mmc_send_status
                0x0000000001139618       0x18 arch/x86/cpu/start.o
 .rel.text.find_mmc_device
                0x0000000001139630       0x18 arch/x86/cpu/start.o
 .rel.text.mmc_bread
                0x0000000001139648       0x10 arch/x86/cpu/start.o
 .rel.text.mmc_go_idle
                0x0000000001139658       0x10 arch/x86/cpu/start.o
 .rel.text.mmc_complete_op_cond
                0x0000000001139668        0x8 arch/x86/cpu/start.o
 .rel.text.mmc_set_capacity
                0x0000000001139670        0x8 arch/x86/cpu/start.o
 .rel.text.mmc_getcd
                0x0000000000000000        0x0 arch/x86/cpu/start.o
 .rel.text.mmc_startup
                0x0000000001139678       0x60 arch/x86/cpu/start.o
 .rel.text.mmc_register
                0x0000000000000000        0x0 arch/x86/cpu/start.o
 .rel.text.mmc_create
                0x00000000011396d8       0x40 arch/x86/cpu/start.o
 .rel.text.mmc_start_init
                0x0000000001139718       0x18 arch/x86/cpu/start.o
 .rel.text.print_mmc_devices
                0x0000000001139730       0x30 arch/x86/cpu/start.o
 .rel.text.get_mmc_num
                0x0000000001139760        0x8 arch/x86/cpu/start.o
 .rel.text.mmc_initialize
                0x0000000001139768       0x38 arch/x86/cpu/start.o
 .rel.text.sdhci_reset
                0x00000000011397a0       0x18 arch/x86/cpu/start.o
 .rel.text.sdhci_send_command
                0x00000000011397b8       0x90 arch/x86/cpu/start.o
 .rel.text.sdhci_set_ios
                0x0000000001139848       0x18 arch/x86/cpu/start.o
 .rel.text.sdhci_init
                0x0000000001139860       0x20 arch/x86/cpu/start.o
 .rel.text.add_sdhci
                0x0000000001139880       0x38 arch/x86/cpu/start.o
 .rel.text.tangier_sdhci_init
                0x00000000011398b8       0x10 arch/x86/cpu/start.o
 .rel.text.mmc_berase
                0x00000000011398c8       0x10 arch/x86/cpu/start.o
 .rel.text.mmc_bwrite
                0x00000000011398d8       0x18 arch/x86/cpu/start.o
 .rel.text.pci_register_hose
                0x00000000011398f0       0x10 arch/x86/cpu/start.o
 .rel.text.pci_bus_to_hose
                0x0000000001139900       0x10 arch/x86/cpu/start.o
 .rel.text.find_hose_by_cfg_addr
                0x0000000000000000        0x0 arch/x86/cpu/start.o
 .rel.text.pci_last_busno
                0x0000000000000000        0x0 arch/x86/cpu/start.o
 .rel.text.pci_find_devices
                0x0000000000000000        0x0 arch/x86/cpu/start.o
 .rel.text.pci_find_device
                0x0000000000000000        0x0 arch/x86/cpu/start.o
 .rel.text.pci_hose_phys_to_bus
                0x0000000000000000        0x0 arch/x86/cpu/start.o
 .rel.text.pci_hose_bus_to_phys
                0x0000000000000000        0x0 arch/x86/cpu/start.o
 .rel.text.pci_class_str
                0x0000000001139910       0x98 arch/x86/cpu/start.o
 .rel.text.pci_hose_scan_bus
                0x0000000000000000        0x0 arch/x86/cpu/start.o
 .rel.text.pci_init
                0x00000000011399a8        0x8 arch/x86/cpu/start.o
 .rel.text.on_baudrate
                0x00000000011399b0       0x30 arch/x86/cpu/start.o
 .rel.text.serial_register
                0x0000000000000000        0x0 arch/x86/cpu/start.o
 .rel.text.serial_initialize
                0x0000000000000000        0x0 arch/x86/cpu/start.o
 .rel.text.serial_stdio_init
                0x00000000011399e0        0x8 arch/x86/cpu/start.o
 .rel.text.serial_assign
                0x00000000011399e8       0x18 arch/x86/cpu/start.o
 .rel.text.serial_reinit_all
                0x0000000000000000        0x0 arch/x86/cpu/start.o
 .rel.text.get_current
                0x0000000001139a00       0x10 arch/x86/cpu/start.o
 .rel.text.default_serial_console
                0x0000000001139a10        0x8 arch/x86/cpu/start.o
 .rel.text.tng_serial_initialize
                0x0000000000000000        0x0 arch/x86/cpu/start.o
 .rel.u_boot_list_2_env_clbk_2_baudrate
                0x0000000001139a18       0x10 arch/x86/cpu/start.o
 .rel.text.spi_set_wordlen
                0x0000000000000000        0x0 arch/x86/cpu/start.o
 .rel.text.dwc3_get_device_id
                0x0000000000000000        0x0 arch/x86/cpu/start.o
 .rel.text.dwc3_probe
                0x0000000001139a28       0x88 arch/x86/cpu/start.o
 .rel.text.dwc3_remove
                0x0000000000000000        0x0 arch/x86/cpu/start.o
 .rel.text.usb_gadget_handle_interrupts
                0x0000000001139ab0        0x8 arch/x86/cpu/start.o
 .rel.text.__dwc3_gadget_ep0_queue
                0x0000000001139ab8       0x18 arch/x86/cpu/start.o
 .rel.text.dwc3_ep0_out_start
                0x0000000001139ad0       0x18 arch/x86/cpu/start.o
 .rel.text.dwc3_ep0_do_control_status
                0x0000000001139ae8       0x18 arch/x86/cpu/start.o
 .rel.text.dwc3_ep0_interrupt
                0x0000000001139b00       0x88 arch/x86/cpu/start.o
 .rel.text.dwc3_send_gadget_ep_cmd
                0x0000000001139b88        0x8 arch/x86/cpu/start.o
 .rel.text.dwc3_gadget_ep_enable
                0x0000000001139b90       0x50 arch/x86/cpu/start.o
 .rel.text.dwc3_gadget_ep_disable
                0x0000000001139be0       0x48 arch/x86/cpu/start.o
 .rel.text.dwc3_gadget_ep_alloc_request
                0x0000000001139c28        0x8 arch/x86/cpu/start.o
 .rel.text.dwc3_gadget_ep_dequeue
                0x0000000001139c30        0x8 arch/x86/cpu/start.o
 .rel.text.__dwc3_gadget_ep_set_halt
                0x0000000001139c38       0x20 arch/x86/cpu/start.o
 .rel.text.dwc3_gadget_ep_set_halt
                0x0000000001139c58        0x8 arch/x86/cpu/start.o
 .rel.text.dwc3_gadget_wakeup
                0x0000000001139c60       0x10 arch/x86/cpu/start.o
 .rel.text.dwc3_gadget_pullup
                0x0000000001139c70        0x8 arch/x86/cpu/start.o
 .rel.text.usb_gadget_probe_driver
                0x0000000001139c78       0x48 arch/x86/cpu/start.o
 .rel.text.dwc3_stop_active_transfer
                0x0000000001139cc0       0x40 arch/x86/cpu/start.o
 .rel.text.dwc3_gadget_reset_interrupt
                0x0000000001139d00       0x28 arch/x86/cpu/start.o
 .rel.text.dwc3_interrupt
                0x0000000001139d28       0x60 arch/x86/cpu/start.o
 .rel.text.dwc3_gadget_init
                0x0000000001139d88       0x70 arch/x86/cpu/start.o
 .rel.text.dwc3_gadget_exit
                0x0000000000000000        0x0 arch/x86/cpu/start.o
 .rel.text.usb_gadget_unregister_driver
                0x0000000001139df8        0x8 arch/x86/cpu/start.o
 .rel.text.dwc3_cleanup_done_reqs.isra.19
                0x0000000001139e00       0x38 arch/x86/cpu/start.o
 .rel.text.usb_ep_autoconfig
                0x0000000000000000        0x0 arch/x86/cpu/start.o
 .rel.text.usb_ep_autoconfig_reset
                0x0000000001139e38        0x8 arch/x86/cpu/start.o
 .rel.text.usb_gadget_get_string
                0x0000000000000000        0x0 arch/x86/cpu/start.o
 .rel.text.composite_setup
                0x0000000001139e40       0x28 arch/x86/cpu/start.o
 .rel.text.composite_disconnect
                0x0000000001139e68        0x8 arch/x86/cpu/start.o
 .rel.text.composite_unbind
                0x0000000001139e70       0x30 arch/x86/cpu/start.o
 .rel.text.composite_bind
                0x0000000001139ea0       0x20 arch/x86/cpu/start.o
 .rel.text.composite_suspend
                0x0000000001139ec0        0x8 arch/x86/cpu/start.o
 .rel.text.composite_resume
                0x0000000001139ec8        0x8 arch/x86/cpu/start.o
 .rel.text.usb_composite_register
                0x0000000001139ed0       0x20 arch/x86/cpu/start.o
 .rel.text.usb_composite_unregister
                0x0000000001139ef0       0x18 arch/x86/cpu/start.o
 .rel.text.g_dnl_set_serialnumber
                0x0000000000000000        0x0 arch/x86/cpu/start.o
 .rel.text.g_dnl_do_config
                0x0000000001139f08       0x38 arch/x86/cpu/start.o
 .rel.text.g_dnl_bind
                0x0000000001139f40       0x58 arch/x86/cpu/start.o
 .rel.text.g_dnl_register
                0x0000000001139f98       0x80 arch/x86/cpu/start.o
 .rel.text.g_dnl_unregister
                0x000000000113a018        0x8 arch/x86/cpu/start.o
 .rel.text.state_app_idle
                0x000000000113a020        0x8 arch/x86/cpu/start.o
 .rel.text.state_dfu_idle
                0x000000000113a028       0x18 arch/x86/cpu/start.o
 .rel.text.state_dfu_dnload_idle
                0x000000000113a040        0x8 arch/x86/cpu/start.o
 .rel.text.state_dfu_manifest_sync
                0x000000000113a048        0x8 arch/x86/cpu/start.o
 .rel.text.state_dfu_manifest
                0x000000000113a050        0x8 arch/x86/cpu/start.o
 .rel.text.dfu_handle
                0x000000000113a058       0x10 arch/x86/cpu/start.o
 .rel.text.dfu_bind
                0x000000000113a068       0x18 arch/x86/cpu/start.o
 .rel.text.dfu_add
                0x000000000113a080       0x50 arch/x86/cpu/start.o
 .rel.text.usbd_get_string
                0x0000000000000000        0x0 arch/x86/cpu/start.o
 .rel.text.usbd_rcv_complete
                0x0000000000000000        0x0 arch/x86/cpu/start.o
 .rel.text.usbd_alloc_urb
                0x0000000000000000        0x0 arch/x86/cpu/start.o
 .rel.text.usbd_device_event_irq
                0x000000000113a0d0       0x18 arch/x86/cpu/start.o
 .rel.text.ep0_recv_setup
                0x0000000000000000        0x0 arch/x86/cpu/start.o
 .rel.text.fs_probe_unsupported
                0x000000000113a0e8        0x8 arch/x86/cpu/start.o
 .rel.text.fs_get_info
                0x000000000113a0f0       0x28 arch/x86/cpu/start.o
 .rel.text.fs_set_blk_dev
                0x000000000113a118       0x38 arch/x86/cpu/start.o
 .rel.text.fs_close
                0x000000000113a150       0x10 arch/x86/cpu/start.o
 .rel.text.fs_ls
                0x000000000113a160       0x10 arch/x86/cpu/start.o
 .rel.text.fs_exists
                0x000000000113a170        0x8 arch/x86/cpu/start.o
 .rel.text.fs_read
                0x000000000113a178       0x10 arch/x86/cpu/start.o
 .rel.text.fs_write
                0x0000000000000000        0x0 arch/x86/cpu/start.o
 .rel.text.do_load
                0x000000000113a188       0x68 arch/x86/cpu/start.o
 .rel.text.do_ls
                0x000000000113a1f0        0x8 arch/x86/cpu/start.o
 .rel.text.do_save
                0x0000000000000000        0x0 arch/x86/cpu/start.o
 .rel.text.get_fs
                0x000000000113a1f8        0x8 arch/x86/cpu/start.o
 .rel.text.ext4fs_free_node
                0x000000000113a200        0x8 arch/x86/cpu/start.o
 .rel.text.ext4fs_read_file
                0x000000000113a208        0x8 arch/x86/cpu/start.o
 .rel.text.ext4fs_ls
                0x000000000113a210       0x18 arch/x86/cpu/start.o
 .rel.text.ext4fs_read
                0x000000000113a228       0x10 arch/x86/cpu/start.o
 .rel.text.ext4_read_file
                0x000000000113a238       0x10 arch/x86/cpu/start.o
 .rel.text.put_ext4
                0x000000000113a248       0x20 arch/x86/cpu/start.o
 .rel.text.ext4fs_set_block_bmap
                0x000000000113a268        0x8 arch/x86/cpu/start.o
 .rel.text.ext4fs_reset_block_bmap
                0x000000000113a270        0x8 arch/x86/cpu/start.o
 .rel.text.ext4fs_set_inode_bmap
                0x000000000113a278        0x8 arch/x86/cpu/start.o
 .rel.text.ext4fs_reset_inode_bmap
                0x000000000113a280        0x8 arch/x86/cpu/start.o
 .rel.text.ext4fs_update_parent_dentry
                0x000000000113a288       0x48 arch/x86/cpu/start.o
 .rel.text.search_dir
                0x0000000000000000        0x0 arch/x86/cpu/start.o
 .rel.text.ext4fs_iget
                0x000000000113a2d0        0x8 arch/x86/cpu/start.o
 .rel.text.ext4fs_get_parent_inode_num
                0x000000000113a2d8       0x50 arch/x86/cpu/start.o
 .rel.text.ext4fs_filename_check
                0x000000000113a328       0x10 arch/x86/cpu/start.o
 .rel.text.ext4fs_get_new_blk_no
                0x000000000113a338       0x18 arch/x86/cpu/start.o
 .rel.text.ext4fs_get_new_inode_no
                0x000000000113a350       0x20 arch/x86/cpu/start.o
 .rel.text.ext4fs_allocate_blocks
                0x000000000113a370       0x68 arch/x86/cpu/start.o
 .rel.text.read_allocated_block
                0x000000000113a3d8      0x360 arch/x86/cpu/start.o
 .rel.text.ext4fs_close
                0x000000000113a738       0x88 arch/x86/cpu/start.o
 .rel.text.ext4fs_iterate_dir
                0x000000000113a7c0       0x30 arch/x86/cpu/start.o
 .rel.text.ext4fs_find_file1
                0x000000000113a7f0       0x18 arch/x86/cpu/start.o
 .rel.text.ext4fs_find_file
                0x000000000113a808        0x8 arch/x86/cpu/start.o
 .rel.text.ext4fs_open
                0x000000000113a810       0x20 arch/x86/cpu/start.o
 .rel.text.ext4fs_mount
                0x000000000113a830       0x18 arch/x86/cpu/start.o
 .rel.text.ext4fs_set_blk_dev
                0x000000000113a848       0x18 arch/x86/cpu/start.o
 .rel.text.ext4fs_devread
                0x000000000113a860       0x80 arch/x86/cpu/start.o
 .rel.text.ext4fs_update
                0x000000000113a8e0       0x10 arch/x86/cpu/start.o
 .rel.text.ext4fs_get_bgdtable
                0x000000000113a8f0        0x8 arch/x86/cpu/start.o
 .rel.text.ext4fs_init
                0x000000000113a8f8       0x18 arch/x86/cpu/start.o
 .rel.text.ext4fs_deinit
                0x000000000113a910        0x8 arch/x86/cpu/start.o
 .rel.text.ext4fs_write
                0x000000000113a918      0x150 arch/x86/cpu/start.o
 .rel.text.ext4fs_init_journal
                0x000000000113aa68       0xd8 arch/x86/cpu/start.o
 .rel.text.ext4fs_dump_metadata
                0x000000000113ab40        0x8 arch/x86/cpu/start.o
 .rel.text.ext4fs_free_journal
                0x000000000113ab48       0x38 arch/x86/cpu/start.o
 .rel.text.ext4fs_log_gdt
                0x000000000113ab80       0x38 arch/x86/cpu/start.o
 .rel.text.ext4fs_log_journal
                0x000000000113abb8       0x50 arch/x86/cpu/start.o
 .rel.text.ext4fs_put_metadata
                0x000000000113ac08       0x48 arch/x86/cpu/start.o
 .rel.text.print_revoke_blks
                0x0000000000000000        0x0 arch/x86/cpu/start.o
 .rel.text.ext4fs_push_revoke_blk
                0x000000000113ac50       0x40 arch/x86/cpu/start.o
 .rel.text.ext4fs_free_revoke_blks
                0x000000000113ac90       0x28 arch/x86/cpu/start.o
 .rel.text.check_blknr_for_revoke
                0x000000000113acb8        0x8 arch/x86/cpu/start.o
 .rel.text.recover_transaction
                0x000000000113acc0       0x10 arch/x86/cpu/start.o
 .rel.text.print_jrnl_status
                0x000000000113acd0       0x10 arch/x86/cpu/start.o
 .rel.text.ext4fs_check_journal_state
                0x000000000113ace0       0x18 arch/x86/cpu/start.o
 .rel.text.ext4fs_update_journal
                0x000000000113acf8       0x70 arch/x86/cpu/start.o
 .rel.text.ext2fs_crc16
                0x000000000113ad68        0x8 arch/x86/cpu/start.o
 .rel.text.downcase
                0x000000000113ad70        0x8 arch/x86/cpu/start.o
 .rel.text.disk_read
                0x000000000113ad78       0x10 arch/x86/cpu/start.o
 .rel.text.fat_set_blk_dev
                0x000000000113ad88       0x40 arch/x86/cpu/start.o
 .rel.text.fat_register_device
                0x0000000000000000        0x0 arch/x86/cpu/start.o
 .rel.text.get_cluster
                0x000000000113adc8        0x8 arch/x86/cpu/start.o
 .rel.text.get_vfatname
                0x000000000113add0       0x20 arch/x86/cpu/start.o
 .rel.text.read_bootsectandvi
                0x000000000113adf0       0x20 arch/x86/cpu/start.o
 .rel.text.do_fat_read_at
                0x000000000113ae10       0xc8 arch/x86/cpu/start.o
 .rel.text.file_fat_detectfs
                0x000000000113aed8       0x90 arch/x86/cpu/start.o
 .rel.text.file_fat_read_at
                0x000000000113af68        0x8 arch/x86/cpu/start.o
 .rel.text.fat_read_file
                0x000000000113af70        0x8 arch/x86/cpu/start.o
 .rel.text.disk_write
                0x000000000113af78       0x20 arch/x86/cpu/start.o
 .rel.text.set_name
                0x000000000113af98        0x8 arch/x86/cpu/start.o
 .rel.text.flush_fat_buffer
                0x000000000113afa0        0x8 arch/x86/cpu/start.o
 .rel.text.check_overflow
                0x000000000113afa8       0x10 arch/x86/cpu/start.o
 .rel.text.do_fat_write
                0x000000000113afb8      0x188 arch/x86/cpu/start.o
 .rel.text.file_fat_write
                0x000000000113b140        0x8 arch/x86/cpu/start.o
 .rel.text.flush_dir_table.constprop.7
                0x000000000113b148       0x40 arch/x86/cpu/start.o
 .rel.text.file_getfsname
                0x0000000000000000        0x0 arch/x86/cpu/start.o
 .rel.text.file_cd
                0x0000000000000000        0x0 arch/x86/cpu/start.o
 .rel.text.file_detectfs
                0x0000000000000000        0x0 arch/x86/cpu/start.o
 .rel.text.file_ls
                0x0000000000000000        0x0 arch/x86/cpu/start.o
 .rel.text.file_read
                0x0000000000000000        0x0 arch/x86/cpu/start.o
 .rel.text.inflate_fast
                0x000000000113b188       0x18 arch/x86/cpu/start.o
 .rel.text.inflate_table
                0x000000000113b1a0       0x20 arch/x86/cpu/start.o
 .rel.text.inflateInit2_
                0x000000000113b1c0       0x10 arch/x86/cpu/start.o
 .rel.text.inflate
                0x000000000113b1d0       0xb0 arch/x86/cpu/start.o
 .rel.text.crc7
                0x0000000000000000        0x0 arch/x86/cpu/start.o
 .rel.text.cyg_crc16
                0x000000000113b280        0x8 arch/x86/cpu/start.o
 .rel.text.gunzip
                0x000000000113b288       0x10 arch/x86/cpu/start.o
 .rel.text.zunzip
                0x000000000113b298       0x28 arch/x86/cpu/start.o
 .rel.text.sha1_finish
                0x000000000113b2c0        0x8 arch/x86/cpu/start.o
 .rel.text.strmhz
                0x000000000113b2c8       0x10 arch/x86/cpu/start.o
 .rel.text.hcreate_r
                0x000000000113b2d8        0x8 arch/x86/cpu/start.o
 .rel.text.hdestroy_r
                0x000000000113b2e0        0x8 arch/x86/cpu/start.o
 .rel.text.hmatch_r
                0x000000000113b2e8        0x8 arch/x86/cpu/start.o
 .rel.text.hsearch_r
                0x000000000113b2f0       0x20 arch/x86/cpu/start.o
 .rel.text.hdelete_r
                0x000000000113b310       0x18 arch/x86/cpu/start.o
 .rel.text.hexport_r
                0x000000000113b328       0x20 arch/x86/cpu/start.o
 .rel.text.himport_r
                0x000000000113b348       0x28 arch/x86/cpu/start.o
 .rel.text.match_string.isra.3
                0x000000000113b370        0x8 arch/x86/cpu/start.o
 .rel.text.display_options
                0x000000000113b378       0x10 arch/x86/cpu/start.o
 .rel.text.print_size
                0x000000000113b388       0x28 arch/x86/cpu/start.o
 .rel.text.print_buffer
                0x000000000113b3b0       0x28 arch/x86/cpu/start.o
 .rel.text.crc32_no_comp
                0x000000000113b3d8       0x30 arch/x86/cpu/start.o
 .rel.text.hang
                0x000000000113b408        0x8 arch/x86/cpu/start.o
 .rel.text.skip_spaces
                0x000000000113b410        0x8 arch/x86/cpu/start.o
 .rel.text.strim
                0x000000000113b418        0x8 arch/x86/cpu/start.o
 .rel.text.strncasecmp
                0x0000000000000000        0x0 arch/x86/cpu/start.o
 .rel.text.strtok
                0x000000000113b420       0x18 arch/x86/cpu/start.o
 .rel.text.uuid_str_valid
                0x000000000113b438        0x8 arch/x86/cpu/start.o
 .rel.text.uuid_bin_to_str
                0x000000000113b440       0x18 arch/x86/cpu/start.o
 .rel.text.simple_strtoul
                0x000000000113b458       0x10 arch/x86/cpu/start.o
 .rel.text.simple_strtoull
                0x000000000113b468       0x10 arch/x86/cpu/start.o
 .rel.text.__assert_fail
                0x0000000000000000        0x0 arch/x86/cpu/start.o
 .rel.text.simple_itoa
                0x0000000000000000        0x0 arch/x86/cpu/start.o
 .rel.text.print_grouped_ull
                0x0000000000000000        0x0 arch/x86/cpu/start.o
 .rel.text.number.isra.1
                0x000000000113b478        0x8 arch/x86/cpu/start.o
 .rel.text.vsnprintf_internal.isra.3
                0x000000000113b480       0x10 arch/x86/cpu/start.o
 .rel.text.rand
                0x000000000113b490        0x8 arch/x86/cpu/start.o
 .rel.text.srand
                0x0000000000000000        0x0 arch/x86/cpu/start.o
                0x000000000113b498                __rel_dyn_end = .
                0x000000000113b498                . = ALIGN (0x4)
                0x000000000113b498                _end = .

.bss            0x0000000001133108   0x839f00
                0x0000000001133108                __bss_start = .
 *(.bss)
 .bss           0x0000000001133108       0xfc arch/x86/cpu/tangier/built-in.o
 *fill*         0x0000000001133204      0xdfc 
 .bss           0x0000000001134000     0x6000 arch/x86/lib/built-in.o
 .bss           0x000000000113a000     0x18a0 common/built-in.o
                0x000000000113b810                mem_malloc_start
                0x000000000113b814                mem_malloc_end
                0x000000000113b818                mem_malloc_brk
                0x000000000113b858                stdio_devices
 .bss           0x000000000113b8a0       0x25 disk/built-in.o
 *fill*         0x000000000113b8c5       0x3b 
 .bss           0x000000000113b900   0x800044 drivers/built-in.o
 .bss           0x000000000193b944        0x8 drivers/mmc/built-in.o
 .bss           0x000000000193b94c       0x14 drivers/pci/built-in.o
 .bss           0x000000000193b960        0x8 drivers/serial/built-in.o
 .bss           0x000000000193b968       0x11 drivers/usb/dwc3/built-in.o
 *fill*         0x000000000193b979        0x3 
 .bss           0x000000000193b97c       0x35 drivers/usb/gadget/built-in.o
 *fill*         0x000000000193b9b1        0x3 
 .bss           0x000000000193b9b4      0x120 fs/built-in.o
 .bss           0x000000000193bad4       0x1a lib/built-in.o
                0x000000000193bad4                errno
 *(COM*)
 *fill*         0x000000000193baee        0x2 
 COMMON         0x000000000193baf0      0x810 arch/x86/cpu/built-in.o
                0x000000000193baf0                idt_ptr
                0x000000000193bb00                idt
 COMMON         0x000000000193c300      0x8a4 common/built-in.o
                0x000000000193c300                console_buffer
                0x000000000193cb04                monitor_flash_len
                0x000000000193cb08                save_addr
                0x000000000193cb0c                env_ptr
                0x000000000193cb10                images
                0x000000000193cba0                save_size
 COMMON         0x000000000193cba4        0x4 drivers/mmc/built-in.o
                0x000000000193cba4                aligned_buffer
 COMMON         0x000000000193cba8        0x4 drivers/usb/dwc3/built-in.o
                0x000000000193cba8                global_dwc3
 *fill*         0x000000000193cbac       0x14 
 COMMON         0x000000000193cbc0    0x30444 fs/built-in.o
                0x000000000193cbc0                ext_fs
                0x000000000193cc08                dirty_block_ptr
                0x000000000193cd98                part_offset
                0x000000000193cd9c                ext4fs_indir1_size
                0x000000000193cda0                ext4fs_indir2_block
                0x000000000193cda4                ext4fs_indir3_block
                0x000000000193cda8                journal_ptr
                0x000000000193cf38                gindex
                0x000000000193cf3c                ext4fs_symlinknest
                0x000000000193cf40                gd_index
                0x000000000193cf80                do_fat_read_at_block
                0x000000000194cf80                ext4fs_indir3_size
                0x000000000194cf84                g_parent_inode
                0x000000000194cf88                ext4fs_indir2_size
                0x000000000194cf8c                ext4fs_indir1_block
                0x000000000194cf90                ext4fs_file
                0x000000000194cfc0                get_dentfromdir_block
                0x000000000195cfc0                ext4fs_root
                0x000000000195d000                get_contents_vfatname_block
                0x000000000196d000                jrnl_blk_idx
 COMMON         0x000000000196d004        0x4 lib/built-in.o
                0x000000000196d004                ___strtok
                0x000000000196d008                . = ALIGN (0x4)
                0x000000000196d008                __bss_end = .

.dynbss         0x000000000113b498        0x0 load address 0x000000000196d008
 .dynbss        0x0000000000000000        0x0 arch/x86/cpu/start.o

/DISCARD/
 *(.dynstr*)
 *(.dynamic*)
 *(.plt*)
 *(.interp*)
 *(.gnu*)
LOAD arch/x86/cpu/start.o
START GROUP
LOAD arch/x86/cpu/built-in.o
LOAD arch/x86/cpu/tangier/built-in.o
LOAD arch/x86/lib/built-in.o
LOAD board/intel/edison/built-in.o
LOAD common/built-in.o
LOAD disk/built-in.o
LOAD drivers/built-in.o
LOAD drivers/dma/built-in.o
LOAD drivers/gpio/built-in.o
LOAD drivers/i2c/built-in.o
LOAD drivers/input/built-in.o
LOAD drivers/mmc/built-in.o
LOAD drivers/mtd/built-in.o
LOAD drivers/mtd/onenand/built-in.o
LOAD drivers/mtd/spi/built-in.o
LOAD drivers/net/built-in.o
LOAD drivers/net/phy/built-in.o
LOAD drivers/pci/built-in.o
LOAD drivers/power/built-in.o
LOAD drivers/power/battery/built-in.o
LOAD drivers/power/fuel_gauge/built-in.o
LOAD drivers/power/mfd/built-in.o
LOAD drivers/power/pmic/built-in.o
LOAD drivers/serial/built-in.o
LOAD drivers/spi/built-in.o
LOAD drivers/usb/dwc3/built-in.o
LOAD drivers/usb/eth/built-in.o
LOAD drivers/usb/gadget/built-in.o
LOAD drivers/usb/host/built-in.o
LOAD drivers/usb/musb-new/built-in.o
LOAD drivers/usb/musb/built-in.o
LOAD drivers/usb/phy/built-in.o
LOAD drivers/usb/ulpi/built-in.o
LOAD fs/built-in.o
LOAD lib/built-in.o
LOAD lib/libfdt/built-in.o
LOAD net/built-in.o
LOAD test/built-in.o
LOAD test/dm/built-in.o
END GROUP
LOAD arch/x86/lib/libgcc.a
OUTPUT(u-boot elf32-i386)

.debug_line     0x0000000000000000    0x17b5b
 .debug_line    0x0000000000000000       0x71 arch/x86/cpu/start.o
 .debug_line    0x0000000000000071      0x53f arch/x86/cpu/built-in.o
 .debug_line    0x00000000000005b0      0x896 arch/x86/cpu/tangier/built-in.o
 .debug_line    0x0000000000000e46     0x18f2 arch/x86/lib/built-in.o
 .debug_line    0x0000000000002738      0x202 board/intel/edison/built-in.o
 .debug_line    0x000000000000293a     0x89ce common/built-in.o
 .debug_line    0x000000000000b308      0xc69 disk/built-in.o
 .debug_line    0x000000000000bf71      0xd93 drivers/built-in.o
 .debug_line    0x000000000000cd04     0x102d drivers/mmc/built-in.o
 .debug_line    0x000000000000dd31      0x88c drivers/pci/built-in.o
 .debug_line    0x000000000000e5bd      0x6ec drivers/serial/built-in.o
 .debug_line    0x000000000000eca9     0x1650 drivers/usb/dwc3/built-in.o
 .debug_line    0x00000000000102f9     0x181a drivers/usb/gadget/built-in.o
 .debug_line    0x0000000000011b13     0x2ab1 fs/built-in.o
 .debug_line    0x00000000000145c4     0x34b9 lib/built-in.o
 .debug_line    0x0000000000017a7d       0xde arch/x86/lib/libgcc.a(_udivdi3.o)

.debug_info     0x0000000000000000    0x7f6cf
 .debug_info    0x0000000000000000       0x91 arch/x86/cpu/start.o
 .debug_info    0x0000000000000091     0x1712 arch/x86/cpu/built-in.o
 .debug_info    0x00000000000017a3     0x26b0 arch/x86/cpu/tangier/built-in.o
 .debug_info    0x0000000000003e53     0x83cb arch/x86/lib/built-in.o
 .debug_info    0x000000000000c21e      0x762 board/intel/edison/built-in.o
 .debug_info    0x000000000000c980    0x2e71c common/built-in.o
 .debug_info    0x000000000003b09c     0x46dd disk/built-in.o
 .debug_info    0x000000000003f779     0x4de9 drivers/built-in.o
 .debug_info    0x0000000000044562     0x5e76 drivers/mmc/built-in.o
 .debug_info    0x000000000004a3d8     0x2f5c drivers/pci/built-in.o
 .debug_info    0x000000000004d334     0x1bd3 drivers/serial/built-in.o
 .debug_info    0x000000000004ef07     0xa7a2 drivers/usb/dwc3/built-in.o
 .debug_info    0x00000000000596a9     0x9949 drivers/usb/gadget/built-in.o
 .debug_info    0x0000000000062ff2    0x11691 fs/built-in.o
 .debug_info    0x0000000000074683     0xad5d lib/built-in.o
 .debug_info    0x000000000007f3e0      0x2ef arch/x86/lib/libgcc.a(_udivdi3.o)

.debug_abbrev   0x0000000000000000    0x175f7
 .debug_abbrev  0x0000000000000000       0x14 arch/x86/cpu/start.o
 .debug_abbrev  0x0000000000000014      0x622 arch/x86/cpu/built-in.o
 .debug_abbrev  0x0000000000000636      0x981 arch/x86/cpu/tangier/built-in.o
 .debug_abbrev  0x0000000000000fb7     0x1d64 arch/x86/lib/built-in.o
 .debug_abbrev  0x0000000000002d1b      0x22d board/intel/edison/built-in.o
 .debug_abbrev  0x0000000000002f48     0x9312 common/built-in.o
 .debug_abbrev  0x000000000000c25a      0xd9f disk/built-in.o
 .debug_abbrev  0x000000000000cff9     0x10b2 drivers/built-in.o
 .debug_abbrev  0x000000000000e0ab      0xf85 drivers/mmc/built-in.o
 .debug_abbrev  0x000000000000f030      0x632 drivers/pci/built-in.o
 .debug_abbrev  0x000000000000f662      0x6a9 drivers/serial/built-in.o
 .debug_abbrev  0x000000000000fd0b     0x1214 drivers/usb/dwc3/built-in.o
 .debug_abbrev  0x0000000000010f1f     0x1825 drivers/usb/gadget/built-in.o
 .debug_abbrev  0x0000000000012744     0x1dfe fs/built-in.o
 .debug_abbrev  0x0000000000014542     0x2f80 lib/built-in.o
 .debug_abbrev  0x00000000000174c2      0x135 arch/x86/lib/libgcc.a(_udivdi3.o)

.debug_aranges  0x0000000000000000     0x2df0
 .debug_aranges
                0x0000000000000000       0x20 arch/x86/cpu/start.o
 .debug_aranges
                0x0000000000000020       0xf8 arch/x86/cpu/built-in.o
 .debug_aranges
                0x0000000000000118      0x118 arch/x86/cpu/tangier/built-in.o
 .debug_aranges
                0x0000000000000230      0x2f8 arch/x86/lib/built-in.o
 .debug_aranges
                0x0000000000000528       0x58 board/intel/edison/built-in.o
 .debug_aranges
                0x0000000000000580     0x1090 common/built-in.o
 .debug_aranges
                0x0000000000001610      0x148 disk/built-in.o
 .debug_aranges
                0x0000000000001758      0x1e8 drivers/built-in.o
 .debug_aranges
                0x0000000000001940      0x1c0 drivers/mmc/built-in.o
 .debug_aranges
                0x0000000000001b00      0x1a8 drivers/pci/built-in.o
 .debug_aranges
                0x0000000000001ca8      0x190 drivers/serial/built-in.o
 .debug_aranges
                0x0000000000001e38      0x218 drivers/usb/dwc3/built-in.o
 .debug_aranges
                0x0000000000002050      0x328 drivers/usb/gadget/built-in.o
 .debug_aranges
                0x0000000000002378      0x438 fs/built-in.o
 .debug_aranges
                0x00000000000027b0      0x620 lib/built-in.o
 .debug_aranges
                0x0000000000002dd0       0x20 arch/x86/lib/libgcc.a(_udivdi3.o)

.comment        0x0000000000000000       0x11
 .comment       0x0000000000000000       0x11 arch/x86/cpu/built-in.o
                                         0x24 (size before relaxing)
 .comment       0x0000000000000000       0x48 arch/x86/cpu/tangier/built-in.o
 .comment       0x0000000000000000       0xea arch/x86/lib/built-in.o
 .comment       0x0000000000000000       0x12 board/intel/edison/built-in.o
 .comment       0x0000000000000000      0x402 common/built-in.o
 .comment       0x0000000000000000       0x48 disk/built-in.o
 .comment       0x0000000000000000       0x7e drivers/built-in.o
 .comment       0x0000000000000000       0x48 drivers/mmc/built-in.o
 .comment       0x0000000000000000       0x24 drivers/pci/built-in.o
 .comment       0x0000000000000000       0x24 drivers/serial/built-in.o
 .comment       0x0000000000000000       0x48 drivers/usb/dwc3/built-in.o
 .comment       0x0000000000000000       0x7e drivers/usb/gadget/built-in.o
 .comment       0x0000000000000000       0xa2 fs/built-in.o
 .comment       0x0000000000000000      0x1d4 lib/built-in.o
 .comment       0x0000000000000000       0x12 arch/x86/lib/libgcc.a(_udivdi3.o)

.note.GNU-stack
                0x0000000000000000        0x0
 .note.GNU-stack
                0x0000000000000000        0x0 arch/x86/cpu/built-in.o
 .note.GNU-stack
                0x0000000000000000        0x0 arch/x86/cpu/tangier/built-in.o
 .note.GNU-stack
                0x0000000000000000        0x0 arch/x86/lib/built-in.o
 .note.GNU-stack
                0x0000000000000000        0x0 board/intel/edison/built-in.o
 .note.GNU-stack
                0x0000000000000000        0x0 common/built-in.o
 .note.GNU-stack
                0x0000000000000000        0x0 disk/built-in.o
 .note.GNU-stack
                0x0000000000000000        0x0 drivers/built-in.o
 .note.GNU-stack
                0x0000000000000000        0x0 drivers/mmc/built-in.o
 .note.GNU-stack
                0x0000000000000000        0x0 drivers/pci/built-in.o
 .note.GNU-stack
                0x0000000000000000        0x0 drivers/serial/built-in.o
 .note.GNU-stack
                0x0000000000000000        0x0 drivers/usb/dwc3/built-in.o
 .note.GNU-stack
                0x0000000000000000        0x0 drivers/usb/gadget/built-in.o
 .note.GNU-stack
                0x0000000000000000        0x0 fs/built-in.o
 .note.GNU-stack
                0x0000000000000000        0x0 lib/built-in.o
 .note.GNU-stack
                0x0000000000000000        0x0 arch/x86/lib/libgcc.a(_udivdi3.o)

.debug_frame    0x0000000000000000     0xdc58
 .debug_frame   0x0000000000000000      0x284 arch/x86/cpu/built-in.o
 .debug_frame   0x0000000000000284      0x208 arch/x86/cpu/tangier/built-in.o
 .debug_frame   0x000000000000048c      0xbf4 arch/x86/lib/built-in.o
 .debug_frame   0x0000000000001080       0x54 board/intel/edison/built-in.o
 .debug_frame   0x00000000000010d4     0x4acc common/built-in.o
 .debug_frame   0x0000000000005ba0      0x8b0 disk/built-in.o
 .debug_frame   0x0000000000006450      0x8c8 drivers/built-in.o
 .debug_frame   0x0000000000006d18      0x900 drivers/mmc/built-in.o
 .debug_frame   0x0000000000007618      0xba8 drivers/pci/built-in.o
 .debug_frame   0x00000000000081c0      0x410 drivers/serial/built-in.o
 .debug_frame   0x00000000000085d0      0xce4 drivers/usb/dwc3/built-in.o
 .debug_frame   0x00000000000092b4      0xf68 drivers/usb/gadget/built-in.o
 .debug_frame   0x000000000000a21c     0x1cb8 fs/built-in.o
 .debug_frame   0x000000000000bed4     0x1d84 lib/built-in.o

.debug_str      0x0000000000000000     0xdb23
 .debug_str     0x0000000000000000      0x7ec arch/x86/cpu/built-in.o
                                        0xd02 (size before relaxing)
 .debug_str     0x00000000000007ec      0x835 arch/x86/cpu/tangier/built-in.o
                                       0x19fb (size before relaxing)
 .debug_str     0x0000000000001021     0x1c07 arch/x86/lib/built-in.o
                                       0x5d2b (size before relaxing)
 .debug_str     0x0000000000002c28       0xf6 board/intel/edison/built-in.o
                                        0x638 (size before relaxing)
 .debug_str     0x0000000000002d1e     0x4016 common/built-in.o
                                      0x19d87 (size before relaxing)
 .debug_str     0x0000000000006d34      0x789 disk/built-in.o
                                       0x1dfb (size before relaxing)
 .debug_str     0x00000000000074bd      0x5ba drivers/built-in.o
                                       0x2991 (size before relaxing)
 .debug_str     0x0000000000007a77      0x4d6 drivers/mmc/built-in.o
                                       0x21a8 (size before relaxing)
 .debug_str     0x0000000000007f4d      0x44f drivers/pci/built-in.o
                                       0x1119 (size before relaxing)
 .debug_str     0x000000000000839c      0x399 drivers/serial/built-in.o
                                        0xf4c (size before relaxing)
 .debug_str     0x0000000000008735     0x1698 drivers/usb/dwc3/built-in.o
                                       0x3f1e (size before relaxing)
 .debug_str     0x0000000000009dcd     0x1553 drivers/usb/gadget/built-in.o
                                       0x4f98 (size before relaxing)
 .debug_str     0x000000000000b320     0x1c3e fs/built-in.o
                                       0x61e2 (size before relaxing)
 .debug_str     0x000000000000cf5e      0x9d4 lib/built-in.o
                                       0x6f03 (size before relaxing)
 .debug_str     0x000000000000d932      0x1f1 arch/x86/lib/libgcc.a(_udivdi3.o)
                                        0x2b9 (size before relaxing)

.debug_loc      0x0000000000000000    0x5b623
 .debug_loc     0x0000000000000000      0x3fc arch/x86/cpu/built-in.o
 .debug_loc     0x00000000000003fc      0x2f5 arch/x86/cpu/tangier/built-in.o
 .debug_loc     0x00000000000006f1     0x2277 arch/x86/lib/built-in.o
 .debug_loc     0x0000000000002968       0x9e board/intel/edison/built-in.o
 .debug_loc     0x0000000000002a06    0x12830 common/built-in.o
 .debug_loc     0x0000000000015236     0x20b9 disk/built-in.o
 .debug_loc     0x00000000000172ef     0x1a3a drivers/built-in.o
 .debug_loc     0x0000000000018d29     0x2af3 drivers/mmc/built-in.o
 .debug_loc     0x000000000001b81c     0x1853 drivers/pci/built-in.o
 .debug_loc     0x000000000001d06f      0x5b2 drivers/serial/built-in.o
 .debug_loc     0x000000000001d621     0x5fe9 drivers/usb/dwc3/built-in.o
 .debug_loc     0x000000000002360a     0x4b63 drivers/usb/gadget/built-in.o
 .debug_loc     0x000000000002816d     0xc421 fs/built-in.o
 .debug_loc     0x000000000003458e    0x26c64 lib/built-in.o
 .debug_loc     0x000000000005b1f2      0x431 arch/x86/lib/libgcc.a(_udivdi3.o)

.debug_ranges   0x0000000000000000     0x3418
 .debug_ranges  0x0000000000000000       0xd8 arch/x86/cpu/built-in.o
 .debug_ranges  0x00000000000000d8       0xb8 arch/x86/cpu/tangier/built-in.o
 .debug_ranges  0x0000000000000190      0x240 arch/x86/lib/built-in.o
 .debug_ranges  0x00000000000003d0       0x28 board/intel/edison/built-in.o
 .debug_ranges  0x00000000000003f8     0x1190 common/built-in.o
 .debug_ranges  0x0000000000001588      0x138 disk/built-in.o
 .debug_ranges  0x00000000000016c0      0x198 drivers/built-in.o
 .debug_ranges  0x0000000000001858      0x288 drivers/mmc/built-in.o
 .debug_ranges  0x0000000000001ae0      0x188 drivers/pci/built-in.o
 .debug_ranges  0x0000000000001c68      0x188 drivers/serial/built-in.o
 .debug_ranges  0x0000000000001df0      0x5c0 drivers/usb/dwc3/built-in.o
 .debug_ranges  0x00000000000023b0      0x408 drivers/usb/gadget/built-in.o
 .debug_ranges  0x00000000000027b8      0x688 fs/built-in.o
 .debug_ranges  0x0000000000002e40      0x5a8 lib/built-in.o
 .debug_ranges  0x00000000000033e8       0x30 arch/x86/lib/libgcc.a(_udivdi3.o)
